ARM GAS  C:\Users\theog\AppData\Local\Temp\ccpFY4cl.s 			page 1


   1              		.cpu cortex-m4
   2              		.eabi_attribute 27, 1
   3              		.eabi_attribute 28, 1
   4              		.eabi_attribute 20, 1
   5              		.eabi_attribute 21, 1
   6              		.eabi_attribute 23, 3
   7              		.eabi_attribute 24, 1
   8              		.eabi_attribute 25, 1
   9              		.eabi_attribute 26, 1
  10              		.eabi_attribute 30, 2
  11              		.eabi_attribute 34, 1
  12              		.eabi_attribute 18, 4
  13              		.file	"audio_processing.c"
  14              		.text
  15              	.Ltext0:
  16              		.cfi_sections	.debug_frame
  17              		.section	.text.set_peak,"ax",%progbits
  18              		.align	1
  19              		.p2align 4,,15
  20              		.global	set_peak
  21              		.syntax unified
  22              		.thumb
  23              		.thumb_func
  24              		.fpu fpv4-sp-d16
  25              		.type	set_peak, %function
  26              	set_peak:
  27              	.LFB290:
  28              		.file 1 "audio_processing.c"
  29              		.loc 1 53 0
  30              		.cfi_startproc
  31              		@ args = 0, pretend = 0, frame = 8
  32              		@ frame_needed = 0, uses_anonymous_args = 0
  33              	.LVL0:
  34 0000 10B5     		push	{r4, lr}
  35              		.cfi_def_cfa_offset 8
  36              		.cfi_offset 4, -8
  37              		.cfi_offset 14, -4
  38 0002 1149     		ldr	r1, .L11
  39              		.loc 1 54 0
  40 0004 9FED117A 		vldr.32	s14, .L11+4
  41              		.loc 1 53 0
  42 0008 0B68     		ldr	r3, [r1]
  43 000a 82B0     		sub	sp, sp, #8
  44              		.cfi_def_cfa_offset 16
  45 000c 2830     		adds	r0, r0, #40
  46              	.LVL1:
  47              		.loc 1 53 0
  48 000e 0193     		str	r3, [sp, #4]
  49              	.LVL2:
  50              		.loc 1 55 0
  51 0010 4FF0FF32 		mov	r2, #-1
  52              		.loc 1 53 0
  53 0014 0A23     		movs	r3, #10
  54              	.LVL3:
  55              	.L4:
  56              	.LBB34:
  57              		.loc 1 59 0
ARM GAS  C:\Users\theog\AppData\Local\Temp\ccpFY4cl.s 			page 2


  58 0016 F0EC017A 		vldmia.32	r0!, {s15}
  59 001a F4EEC77A 		vcmpe.f32	s15, s14
  60 001e F1EE10FA 		vmrs	APSR_nzcv, FPSCR
  61              	.LVL4:
  62              		.loc 1 61 0
  63 0022 C8BF     		it	gt
  64 0024 5AB2     		sxtbgt	r2, r3
  65              	.LVL5:
  66 0026 03F10103 		add	r3, r3, #1
  67              	.LVL6:
  68              		.loc 1 60 0
  69 002a C8BF     		it	gt
  70 002c B0EE677A 		vmovgt.f32	s14, s15
  71              	.LVL7:
  72              		.loc 1 58 0
  73 0030 1F2B     		cmp	r3, #31
  74 0032 F0D1     		bne	.L4
  75              	.LBE34:
  76              		.loc 1 65 0
  77 0034 0198     		ldr	r0, [sp, #4]
  78 0036 0B68     		ldr	r3, [r1]
  79              		.loc 1 64 0
  80 0038 054C     		ldr	r4, .L11+8
  81              		.loc 1 65 0
  82 003a 9842     		cmp	r0, r3
  83              		.loc 1 64 0
  84 003c 2270     		strb	r2, [r4]
  85              		.loc 1 65 0
  86 003e 01D1     		bne	.L10
  87 0040 02B0     		add	sp, sp, #8
  88              		.cfi_remember_state
  89              		.cfi_def_cfa_offset 8
  90              		@ sp needed
  91 0042 10BD     		pop	{r4, pc}
  92              	.L10:
  93              		.cfi_restore_state
  94 0044 FFF7FEFF 		bl	__stack_chk_fail
  95              	.LVL8:
  96              	.L12:
  97              		.align	2
  98              	.L11:
  99 0048 00000000 		.word	__stack_chk_guard
 100 004c 00401C46 		.word	1176256512
 101 0050 00000000 		.word	.LANCHOR0
 102              		.cfi_endproc
 103              	.LFE290:
 104              		.size	set_peak, .-set_peak
 105              		.section	.text.get_peak,"ax",%progbits
 106              		.align	1
 107              		.p2align 4,,15
 108              		.global	get_peak
 109              		.syntax unified
 110              		.thumb
 111              		.thumb_func
 112              		.fpu fpv4-sp-d16
 113              		.type	get_peak, %function
 114              	get_peak:
ARM GAS  C:\Users\theog\AppData\Local\Temp\ccpFY4cl.s 			page 3


 115              	.LFB291:
 116              		.loc 1 67 0
 117              		.cfi_startproc
 118              		@ args = 0, pretend = 0, frame = 8
 119              		@ frame_needed = 0, uses_anonymous_args = 0
 120 0000 00B5     		push	{lr}
 121              		.cfi_def_cfa_offset 4
 122              		.cfi_offset 14, -4
 123 0002 084B     		ldr	r3, .L17
 124              		.loc 1 68 0
 125 0004 0849     		ldr	r1, .L17+4
 126              		.loc 1 67 0
 127 0006 1A68     		ldr	r2, [r3]
 128              		.loc 1 69 0
 129 0008 91F90000 		ldrsb	r0, [r1]
 130              		.loc 1 67 0
 131 000c 83B0     		sub	sp, sp, #12
 132              		.cfi_def_cfa_offset 16
 133              		.loc 1 67 0
 134 000e 0192     		str	r2, [sp, #4]
 135              		.loc 1 69 0
 136 0010 019A     		ldr	r2, [sp, #4]
 137 0012 1B68     		ldr	r3, [r3]
 138 0014 9A42     		cmp	r2, r3
 139 0016 02D1     		bne	.L16
 140 0018 03B0     		add	sp, sp, #12
 141              		.cfi_remember_state
 142              		.cfi_def_cfa_offset 4
 143              		@ sp needed
 144 001a 5DF804FB 		ldr	pc, [sp], #4
 145              	.L16:
 146              		.cfi_restore_state
 147 001e FFF7FEFF 		bl	__stack_chk_fail
 148              	.LVL9:
 149              	.L18:
 150 0022 00BF     		.align	2
 151              	.L17:
 152 0024 00000000 		.word	__stack_chk_guard
 153 0028 00000000 		.word	.LANCHOR0
 154              		.cfi_endproc
 155              	.LFE291:
 156              		.size	get_peak, .-get_peak
 157              		.section	.text.sound_remote,"ax",%progbits
 158              		.align	1
 159              		.p2align 4,,15
 160              		.global	sound_remote
 161              		.syntax unified
 162              		.thumb
 163              		.thumb_func
 164              		.fpu fpv4-sp-d16
 165              		.type	sound_remote, %function
 166              	sound_remote:
 167              	.LFB292:
 168              		.loc 1 72 0
 169              		.cfi_startproc
 170              		@ args = 0, pretend = 0, frame = 8
 171              		@ frame_needed = 0, uses_anonymous_args = 0
ARM GAS  C:\Users\theog\AppData\Local\Temp\ccpFY4cl.s 			page 4


 172              	.LVL10:
 173 0000 10B5     		push	{r4, lr}
 174              		.cfi_def_cfa_offset 8
 175              		.cfi_offset 4, -8
 176              		.cfi_offset 14, -4
 177 0002 2B4C     		ldr	r4, .L44
 178              		.loc 1 73 0
 179 0004 9FED2B7A 		vldr.32	s14, .L44+4
 180              		.loc 1 72 0
 181 0008 2368     		ldr	r3, [r4]
 182 000a 82B0     		sub	sp, sp, #8
 183              		.cfi_def_cfa_offset 16
 184 000c 2830     		adds	r0, r0, #40
 185              	.LVL11:
 186              		.loc 1 72 0
 187 000e 0193     		str	r3, [sp, #4]
 188              	.LVL12:
 189              		.loc 1 74 0
 190 0010 4FF0FF32 		mov	r2, #-1
 191              		.loc 1 72 0
 192 0014 0A23     		movs	r3, #10
 193              	.LVL13:
 194              	.L22:
 195              	.LBB35:
 196              		.loc 1 78 0
 197 0016 F0EC017A 		vldmia.32	r0!, {s15}
 198 001a F4EEC77A 		vcmpe.f32	s15, s14
 199 001e F1EE10FA 		vmrs	APSR_nzcv, FPSCR
 200              	.LVL14:
 201              		.loc 1 80 0
 202 0022 C8BF     		it	gt
 203 0024 1AB2     		sxthgt	r2, r3
 204              	.LVL15:
 205 0026 03F10103 		add	r3, r3, #1
 206              	.LVL16:
 207              		.loc 1 79 0
 208 002a C8BF     		it	gt
 209 002c B0EE677A 		vmovgt.f32	s14, s15
 210              	.LVL17:
 211              		.loc 1 77 0
 212 0030 1F2B     		cmp	r3, #31
 213 0032 F0D1     		bne	.L22
 214              	.LBE35:
 215              		.loc 1 85 0
 216 0034 92B2     		uxth	r2, r2
 217 0036 A2F10F03 		sub	r3, r2, #15
 218 003a 022B     		cmp	r3, #2
 219 003c 24D9     		bls	.L40
 220              		.loc 1 90 0
 221 003e A2F11203 		sub	r3, r2, #18
 222 0042 022B     		cmp	r3, #2
 223 0044 11D9     		bls	.L41
 224              		.loc 1 95 0
 225 0046 A2F11603 		sub	r3, r2, #22
 226 004a 022B     		cmp	r3, #2
 227 004c 2CD9     		bls	.L42
 228              		.loc 1 100 0
ARM GAS  C:\Users\theog\AppData\Local\Temp\ccpFY4cl.s 			page 5


 229 004e 193A     		subs	r2, r2, #25
 230 0050 022A     		cmp	r2, #2
 231 0052 1CD9     		bls	.L43
 232              		.loc 1 105 0
 233 0054 0020     		movs	r0, #0
 234 0056 FFF7FEFF 		bl	left_motor_set_speed
 235              	.LVL18:
 236              		.loc 1 106 0
 237 005a 019A     		ldr	r2, [sp, #4]
 238 005c 2368     		ldr	r3, [r4]
 239 005e 9A42     		cmp	r2, r3
 240 0060 08BF     		it	eq
 241 0062 0020     		moveq	r0, #0
 242 0064 0BD0     		beq	.L36
 243              	.L37:
 244 0066 FFF7FEFF 		bl	__stack_chk_fail
 245              	.LVL19:
 246              	.L41:
 247              		.loc 1 91 0
 248 006a 1348     		ldr	r0, .L44+8
 249              	.L38:
 250 006c FFF7FEFF 		bl	left_motor_set_speed
 251              	.LVL20:
 252              		.loc 1 92 0
 253 0070 019A     		ldr	r2, [sp, #4]
 254 0072 2368     		ldr	r3, [r4]
 255 0074 9A42     		cmp	r2, r3
 256 0076 08BF     		it	eq
 257 0078 4FF41670 		moveq	r0, #600
 258 007c F3D1     		bne	.L37
 259              	.L36:
 260              		.loc 1 109 0
 261 007e 02B0     		add	sp, sp, #8
 262              		.cfi_remember_state
 263              		.cfi_def_cfa_offset 8
 264              		@ sp needed
 265 0080 BDE81040 		pop	{r4, lr}
 266              		.cfi_restore 14
 267              		.cfi_restore 4
 268              		.cfi_def_cfa_offset 0
 269              		.loc 1 106 0
 270 0084 FFF7FEBF 		b	right_motor_set_speed
 271              	.LVL21:
 272              	.L40:
 273              		.cfi_restore_state
 274              		.loc 1 86 0
 275 0088 4FF41670 		mov	r0, #600
 276 008c EEE7     		b	.L38
 277              	.L43:
 278              		.loc 1 101 0
 279 008e 0A48     		ldr	r0, .L44+8
 280              	.L39:
 281 0090 FFF7FEFF 		bl	left_motor_set_speed
 282              	.LVL22:
 283              		.loc 1 102 0
 284 0094 019A     		ldr	r2, [sp, #4]
 285 0096 2368     		ldr	r3, [r4]
ARM GAS  C:\Users\theog\AppData\Local\Temp\ccpFY4cl.s 			page 6


 286 0098 9A42     		cmp	r2, r3
 287 009a E4D1     		bne	.L37
 288 009c 0648     		ldr	r0, .L44+8
 289              		.loc 1 109 0
 290 009e 02B0     		add	sp, sp, #8
 291              		.cfi_remember_state
 292              		.cfi_def_cfa_offset 8
 293              		@ sp needed
 294 00a0 BDE81040 		pop	{r4, lr}
 295              		.cfi_restore 14
 296              		.cfi_restore 4
 297              		.cfi_def_cfa_offset 0
 298              		.loc 1 106 0
 299 00a4 FFF7FEBF 		b	right_motor_set_speed
 300              	.LVL23:
 301              	.L42:
 302              		.cfi_restore_state
 303              		.loc 1 96 0
 304 00a8 4FF41670 		mov	r0, #600
 305 00ac F0E7     		b	.L39
 306              	.L45:
 307 00ae 00BF     		.align	2
 308              	.L44:
 309 00b0 00000000 		.word	__stack_chk_guard
 310 00b4 00401C46 		.word	1176256512
 311 00b8 A8FDFFFF 		.word	-600
 312              		.cfi_endproc
 313              	.LFE292:
 314              		.size	sound_remote, .-sound_remote
 315              		.section	.text.processAudioData,"ax",%progbits
 316              		.align	1
 317              		.p2align 4,,15
 318              		.global	processAudioData
 319              		.syntax unified
 320              		.thumb
 321              		.thumb_func
 322              		.fpu fpv4-sp-d16
 323              		.type	processAudioData, %function
 324              	processAudioData:
 325              	.LFB293:
 326              		.loc 1 120 0
 327              		.cfi_startproc
 328              		@ args = 0, pretend = 0, frame = 8
 329              		@ frame_needed = 0, uses_anonymous_args = 0
 330              	.LVL24:
 331 0000 2DE9F04F 		push	{r4, r5, r6, r7, r8, r9, r10, fp, lr}
 332              		.cfi_def_cfa_offset 36
 333              		.cfi_offset 4, -36
 334              		.cfi_offset 5, -32
 335              		.cfi_offset 6, -28
 336              		.cfi_offset 7, -24
 337              		.cfi_offset 8, -20
 338              		.cfi_offset 9, -16
 339              		.cfi_offset 10, -12
 340              		.cfi_offset 11, -8
 341              		.cfi_offset 14, -4
 342 0004 6E4E     		ldr	r6, .L67
ARM GAS  C:\Users\theog\AppData\Local\Temp\ccpFY4cl.s 			page 7


 343 0006 6F4F     		ldr	r7, .L67+4
 344 0008 3368     		ldr	r3, [r6]
 345 000a 3A88     		ldrh	r2, [r7]
 346 000c 83B0     		sub	sp, sp, #12
 347              		.cfi_def_cfa_offset 48
 348              		.loc 1 120 0
 349 000e 0193     		str	r3, [sp, #4]
 350              	.LVL25:
 351              	.LBB54:
 352              		.loc 1 134 0
 353 0010 0029     		cmp	r1, #0
 354 0012 00F0A080 		beq	.L47
 355 0016 DFF8B491 		ldr	r9, .L67+12
 356 001a DFF8B881 		ldr	r8, .L67+20
 357 001e DFF8BCE1 		ldr	lr, .L67+28
 358 0022 DFF8B4C1 		ldr	ip, .L67+24
 359              		.loc 1 143 0
 360 0026 DFED687A 		vldr.32	s15, .L67+8
 361              		.loc 1 134 0
 362 002a 0025     		movs	r5, #0
 363 002c 04E0     		b	.L50
 364              	.LVL26:
 365              	.L48:
 366              		.loc 1 134 0 is_stmt 0 discriminator 2
 367 002e 0435     		adds	r5, r5, #4
 368              	.LVL27:
 369 0030 ADB2     		uxth	r5, r5
 370              	.LVL28:
 371 0032 A942     		cmp	r1, r5
 372 0034 40F2C280 		bls	.L64
 373              	.LVL29:
 374              	.L50:
 375              		.loc 1 136 0 is_stmt 1
 376 0038 30F91530 		ldrsh	r3, [r0, r5, lsl #1]
 377 003c 07EE103A 		vmov	s14, r3	@ int
 378 0040 9400     		lsls	r4, r2, #2
 379 0042 B8EEC77A 		vcvt.f32.s32	s14, s14
 380 0046 09EB040A 		add	r10, r9, r4
 381              		.loc 1 137 0
 382 004a 00EB4503 		add	r3, r0, r5, lsl #1
 383              		.loc 1 136 0
 384 004e 8AED007A 		vstr.32	s14, [r10]
 385              		.loc 1 137 0
 386 0052 B3F902A0 		ldrsh	r10, [r3, #2]
 387 0056 07EE10AA 		vmov	s14, r10	@ int
 388 005a B8EEC77A 		vcvt.f32.s32	s14, s14
 389 005e 08EB040A 		add	r10, r8, r4
 390 0062 8AED007A 		vstr.32	s14, [r10]
 391              		.loc 1 138 0
 392 0066 B3F904A0 		ldrsh	r10, [r3, #4]
 393 006a 07EE10AA 		vmov	s14, r10	@ int
 394 006e B8EEC77A 		vcvt.f32.s32	s14, s14
 395 0072 0EEB040A 		add	r10, lr, r4
 396 0076 8AED007A 		vstr.32	s14, [r10]
 397              		.loc 1 139 0
 398 007a B3F90630 		ldrsh	r3, [r3, #6]
 399 007e 07EE103A 		vmov	s14, r3	@ int
ARM GAS  C:\Users\theog\AppData\Local\Temp\ccpFY4cl.s 			page 8


 400              		.loc 1 143 0
 401 0082 531C     		adds	r3, r2, #1
 402 0084 9BB2     		uxth	r3, r3
 403              		.loc 1 139 0
 404 0086 B8EEC77A 		vcvt.f32.s32	s14, s14
 405              		.loc 1 148 0
 406 008a 0232     		adds	r2, r2, #2
 407              		.loc 1 143 0
 408 008c 9B00     		lsls	r3, r3, #2
 409              		.loc 1 139 0
 410 008e 6444     		add	r4, r4, ip
 411              		.loc 1 148 0
 412 0090 92B2     		uxth	r2, r2
 413              		.loc 1 139 0
 414 0092 84ED007A 		vstr.32	s14, [r4]
 415              		.loc 1 143 0
 416 0096 09EB030B 		add	fp, r9, r3
 417              		.loc 1 144 0
 418 009a 08EB030A 		add	r10, r8, r3
 419              		.loc 1 145 0
 420 009e 0EEB0304 		add	r4, lr, r3
 421              		.loc 1 151 0
 422 00a2 B2F5006F 		cmp	r2, #2048
 423              		.loc 1 146 0
 424 00a6 6344     		add	r3, r3, ip
 425              		.loc 1 143 0
 426 00a8 CBED007A 		vstr.32	s15, [fp]
 427              		.loc 1 144 0
 428 00ac CAED007A 		vstr.32	s15, [r10]
 429              		.loc 1 145 0
 430 00b0 C4ED007A 		vstr.32	s15, [r4]
 431              		.loc 1 146 0
 432 00b4 C3ED007A 		vstr.32	s15, [r3]
 433              		.loc 1 151 0
 434 00b8 B9D3     		bcc	.L48
 435 00ba 3A80     		strh	r2, [r7]	@ movhi
 436              	.LVL30:
 437              	.L49:
 438              	.LBE54:
 439              		.loc 1 163 0
 440 00bc 4349     		ldr	r1, .L67+12
 441              	.LVL31:
 442              		.loc 1 182 0
 443 00be 444C     		ldr	r4, .L67+16
 444              		.loc 1 163 0
 445 00c0 4FF48060 		mov	r0, #1024
 446              	.LVL32:
 447 00c4 FFF7FEFF 		bl	doFFT_optimized
 448              	.LVL33:
 449              		.loc 1 164 0
 450 00c8 4249     		ldr	r1, .L67+20
 451 00ca 4FF48060 		mov	r0, #1024
 452 00ce FFF7FEFF 		bl	doFFT_optimized
 453              	.LVL34:
 454              		.loc 1 165 0
 455 00d2 4149     		ldr	r1, .L67+24
 456 00d4 4FF48060 		mov	r0, #1024
ARM GAS  C:\Users\theog\AppData\Local\Temp\ccpFY4cl.s 			page 9


 457 00d8 FFF7FEFF 		bl	doFFT_optimized
 458              	.LVL35:
 459              		.loc 1 166 0
 460 00dc 3F49     		ldr	r1, .L67+28
 461 00de 4FF48060 		mov	r0, #1024
 462 00e2 FFF7FEFF 		bl	doFFT_optimized
 463              	.LVL36:
 464              		.loc 1 175 0
 465 00e6 4FF48062 		mov	r2, #1024
 466 00ea 3D49     		ldr	r1, .L67+32
 467 00ec 3748     		ldr	r0, .L67+12
 468 00ee FFF7FEFF 		bl	arm_cmplx_mag_f32
 469              	.LVL37:
 470              		.loc 1 176 0
 471 00f2 4FF48062 		mov	r2, #1024
 472 00f6 3B49     		ldr	r1, .L67+36
 473 00f8 3648     		ldr	r0, .L67+20
 474 00fa FFF7FEFF 		bl	arm_cmplx_mag_f32
 475              	.LVL38:
 476              		.loc 1 177 0
 477 00fe 4FF48062 		mov	r2, #1024
 478 0102 3949     		ldr	r1, .L67+40
 479 0104 3448     		ldr	r0, .L67+24
 480 0106 FFF7FEFF 		bl	arm_cmplx_mag_f32
 481              	.LVL39:
 482              		.loc 1 178 0
 483 010a 4FF48062 		mov	r2, #1024
 484 010e 3749     		ldr	r1, .L67+44
 485 0110 3248     		ldr	r0, .L67+28
 486 0112 FFF7FEFF 		bl	arm_cmplx_mag_f32
 487              	.LVL40:
 488              		.loc 1 182 0
 489 0116 2378     		ldrb	r3, [r4]	@ zero_extendqisi2
 490 0118 082B     		cmp	r3, #8
 491 011a 26D8     		bhi	.L52
 492 011c 0133     		adds	r3, r3, #1
 493 011e DBB2     		uxtb	r3, r3
 494              	.L53:
 495              		.loc 1 187 0
 496 0120 0021     		movs	r1, #0
 497              	.LBB55:
 498              	.LBB56:
 499              		.loc 1 54 0
 500 0122 9FED337A 		vldr.32	s14, .L67+48
 501 0126 334A     		ldr	r2, .L67+52
 502              	.LBE56:
 503              	.LBE55:
 504              		.loc 1 188 0
 505 0128 2370     		strb	r3, [r4]
 506              	.LVL41:
 507              		.loc 1 187 0
 508 012a 3980     		strh	r1, [r7]	@ movhi
 509              		.loc 1 188 0
 510 012c 0A23     		movs	r3, #10
 511              	.LBB59:
 512              	.LBB58:
 513              		.loc 1 55 0
ARM GAS  C:\Users\theog\AppData\Local\Temp\ccpFY4cl.s 			page 10


 514 012e 4FF0FF31 		mov	r1, #-1
 515              	.LVL42:
 516              	.L58:
 517              	.LBB57:
 518              		.loc 1 59 0
 519 0132 F2EC017A 		vldmia.32	r2!, {s15}
 520 0136 F4EEC77A 		vcmpe.f32	s15, s14
 521 013a F1EE10FA 		vmrs	APSR_nzcv, FPSCR
 522              	.LVL43:
 523              		.loc 1 61 0
 524 013e C8BF     		it	gt
 525 0140 59B2     		sxtbgt	r1, r3
 526              	.LVL44:
 527 0142 03F10103 		add	r3, r3, #1
 528              	.LVL45:
 529              		.loc 1 60 0
 530 0146 C8BF     		it	gt
 531 0148 B0EE677A 		vmovgt.f32	s14, s15
 532              	.LVL46:
 533              		.loc 1 58 0
 534 014c 1F2B     		cmp	r3, #31
 535 014e F0D1     		bne	.L58
 536              	.LBE57:
 537              		.loc 1 64 0
 538 0150 294B     		ldr	r3, .L67+56
 539 0152 1970     		strb	r1, [r3]
 540              	.LBE58:
 541              	.LBE59:
 542              		.loc 1 192 0
 543 0154 02E0     		b	.L46
 544              	.LVL47:
 545              	.L47:
 546              		.loc 1 156 0
 547 0156 B2F5006F 		cmp	r2, #2048
 548 015a AFD2     		bcs	.L49
 549              	.LVL48:
 550              	.L46:
 551              		.loc 1 192 0
 552 015c 019A     		ldr	r2, [sp, #4]
 553 015e 3368     		ldr	r3, [r6]
 554 0160 9A42     		cmp	r2, r3
 555 0162 29D1     		bne	.L65
 556 0164 03B0     		add	sp, sp, #12
 557              		.cfi_remember_state
 558              		.cfi_def_cfa_offset 36
 559              		@ sp needed
 560 0166 BDE8F08F 		pop	{r4, r5, r6, r7, r8, r9, r10, fp, pc}
 561              	.L52:
 562              		.cfi_restore_state
 563              	.LVL49:
 564              	.LBB60:
 565              	.LBB61:
 566              	.LBB62:
 567              	.LBB63:
 568              	.LBB64:
 569              	.LBB65:
 570              	.LBB66:
ARM GAS  C:\Users\theog\AppData\Local\Temp\ccpFY4cl.s 			page 11


 571              		.file 2 "../../lib/e-puck2_main-processor/ChibiOS//os/ext/CMSIS/include/core_cmFunc.h"
 572              		.loc 2 546 0
 573 016a 2023     		movs	r3, #32
 574              		.syntax unified
 575              	@ 546 "../../lib/e-puck2_main-processor/ChibiOS//os/ext/CMSIS/include/core_cmFunc.h" 1
 576 016c 83F31188 		MSR basepri, r3
 577              	@ 0 "" 2
 578              	.LVL50:
 579              		.thumb
 580              		.syntax unified
 581              	.LBE66:
 582              	.LBE65:
 583              	.LBE64:
 584              		.file 3 "../../lib/e-puck2_main-processor/ChibiOS//os/rt/include/chsys.h"
 585              		.loc 3 349 0
 586 0170 FFF7FEFF 		bl	_stats_start_measure_crit_thd
 587              	.LVL51:
 588              		.loc 3 350 0
 589 0174 FFF7FEFF 		bl	_dbg_check_lock
 590              	.LVL52:
 591              	.LBE63:
 592              	.LBE62:
 593              	.LBB67:
 594              	.LBB68:
 595              		.file 4 "../../lib/e-puck2_main-processor/ChibiOS//os/rt/include/chbsem.h"
 596              		.loc 4 268 0
 597 0178 FFF7FEFF 		bl	chDbgCheckClassI
 598              	.LVL53:
 599              		.loc 4 270 0
 600 017c 1F48     		ldr	r0, .L67+60
 601 017e 8368     		ldr	r3, [r0, #8]
 602 0180 002B     		cmp	r3, #0
 603 0182 16DD     		ble	.L66
 604              	.L54:
 605              	.LVL54:
 606              	.LBE68:
 607              	.LBE67:
 608              		.loc 4 286 0
 609 0184 FFF7FEFF 		bl	chSchRescheduleS
 610              	.LVL55:
 611              	.LBB70:
 612              	.LBB71:
 613              		.loc 3 360 0
 614 0188 FFF7FEFF 		bl	_dbg_check_unlock
 615              	.LVL56:
 616              		.loc 3 361 0
 617 018c FFF7FEFF 		bl	_stats_stop_measure_crit_thd
 618              	.LVL57:
 619              		.loc 3 367 0
 620 0190 1B4B     		ldr	r3, .L67+64
 621 0192 1A68     		ldr	r2, [r3]
 622 0194 9A42     		cmp	r2, r3
 623 0196 07D0     		beq	.L55
 624 0198 9969     		ldr	r1, [r3, #24]
 625 019a 9368     		ldr	r3, [r2, #8]
 626 019c 8A68     		ldr	r2, [r1, #8]
 627 019e 9A42     		cmp	r2, r3
ARM GAS  C:\Users\theog\AppData\Local\Temp\ccpFY4cl.s 			page 12


 628 01a0 02D2     		bcs	.L55
 629 01a2 1848     		ldr	r0, .L67+68
 630 01a4 FFF7FEFF 		bl	chSysHalt
 631              	.LVL58:
 632              	.L55:
 633              	.LBB72:
 634              	.LBB73:
 635              	.LBB74:
 636              		.loc 2 546 0
 637 01a8 0023     		movs	r3, #0
 638              		.syntax unified
 639              	@ 546 "../../lib/e-puck2_main-processor/ChibiOS//os/ext/CMSIS/include/core_cmFunc.h" 1
 640 01aa 83F31188 		MSR basepri, r3
 641              	@ 0 "" 2
 642              	.LVL59:
 643              		.thumb
 644              		.syntax unified
 645 01ae 0123     		movs	r3, #1
 646 01b0 B6E7     		b	.L53
 647              	.LVL60:
 648              	.L66:
 649              	.LBE74:
 650              	.LBE73:
 651              	.LBE72:
 652              	.LBE71:
 653              	.LBE70:
 654              	.LBB75:
 655              	.LBB69:
 656              		.loc 4 271 0
 657 01b2 FFF7FEFF 		bl	chSemSignalI
 658              	.LVL61:
 659 01b6 E5E7     		b	.L54
 660              	.LVL62:
 661              	.L65:
 662              	.LBE69:
 663              	.LBE75:
 664              	.LBE61:
 665              	.LBE60:
 666              		.loc 1 192 0
 667 01b8 FFF7FEFF 		bl	__stack_chk_fail
 668              	.LVL63:
 669              	.L64:
 670 01bc 3A80     		strh	r2, [r7]	@ movhi
 671 01be CDE7     		b	.L46
 672              	.L68:
 673              		.align	2
 674              	.L67:
 675 01c0 00000000 		.word	__stack_chk_guard
 676 01c4 00000000 		.word	.LANCHOR1
 677 01c8 00000000 		.word	0
 678 01cc 00000000 		.word	micRight_cmplx_input
 679 01d0 00000000 		.word	.LANCHOR2
 680 01d4 00000000 		.word	micLeft_cmplx_input
 681 01d8 00000000 		.word	micFront_cmplx_input
 682 01dc 00000000 		.word	micBack_cmplx_input
 683 01e0 00000000 		.word	micRight_output
 684 01e4 00000000 		.word	micLeft_output
ARM GAS  C:\Users\theog\AppData\Local\Temp\ccpFY4cl.s 			page 13


 685 01e8 00000000 		.word	micFront_output
 686 01ec 00000000 		.word	micBack_output
 687 01f0 00401C46 		.word	1176256512
 688 01f4 28000000 		.word	micLeft_output+40
 689 01f8 00000000 		.word	.LANCHOR0
 690 01fc 00000000 		.word	.LANCHOR3
 691 0200 00000000 		.word	ch
 692 0204 00000000 		.word	.LANCHOR4
 693              		.cfi_endproc
 694              	.LFE293:
 695              		.size	processAudioData, .-processAudioData
 696              		.section	.text.wait_send_to_computer,"ax",%progbits
 697              		.align	1
 698              		.p2align 4,,15
 699              		.global	wait_send_to_computer
 700              		.syntax unified
 701              		.thumb
 702              		.thumb_func
 703              		.fpu fpv4-sp-d16
 704              		.type	wait_send_to_computer, %function
 705              	wait_send_to_computer:
 706              	.LFB294:
 707              		.loc 1 194 0
 708              		.cfi_startproc
 709              		@ args = 0, pretend = 0, frame = 8
 710              		@ frame_needed = 0, uses_anonymous_args = 0
 711 0000 00B5     		push	{lr}
 712              		.cfi_def_cfa_offset 4
 713              		.cfi_offset 14, -4
 714 0002 084B     		ldr	r3, .L74
 715 0004 83B0     		sub	sp, sp, #12
 716              		.cfi_def_cfa_offset 16
 717              		.loc 1 194 0
 718 0006 1A68     		ldr	r2, [r3]
 719 0008 0192     		str	r2, [sp, #4]
 720              	.LVL64:
 721              	.LBB76:
 722              	.LBB77:
 723              		.loc 4 143 0
 724 000a 019A     		ldr	r2, [sp, #4]
 725 000c 1B68     		ldr	r3, [r3]
 726 000e 9A42     		cmp	r2, r3
 727 0010 05D1     		bne	.L73
 728 0012 0548     		ldr	r0, .L74+4
 729              	.LBE77:
 730              	.LBE76:
 731              		.loc 1 196 0
 732 0014 03B0     		add	sp, sp, #12
 733              		.cfi_remember_state
 734              		.cfi_def_cfa_offset 4
 735              		@ sp needed
 736 0016 5DF804EB 		ldr	lr, [sp], #4
 737              		.cfi_restore 14
 738              		.cfi_def_cfa_offset 0
 739              	.LBB79:
 740              	.LBB78:
 741              		.loc 4 143 0
ARM GAS  C:\Users\theog\AppData\Local\Temp\ccpFY4cl.s 			page 14


 742 001a FFF7FEBF 		b	chSemWait
 743              	.LVL65:
 744              	.L73:
 745              		.cfi_restore_state
 746 001e FFF7FEFF 		bl	__stack_chk_fail
 747              	.LVL66:
 748              	.L75:
 749 0022 00BF     		.align	2
 750              	.L74:
 751 0024 00000000 		.word	__stack_chk_guard
 752 0028 00000000 		.word	.LANCHOR3
 753              	.LBE78:
 754              	.LBE79:
 755              		.cfi_endproc
 756              	.LFE294:
 757              		.size	wait_send_to_computer, .-wait_send_to_computer
 758              		.section	.text.get_audio_buffer_ptr,"ax",%progbits
 759              		.align	1
 760              		.p2align 4,,15
 761              		.global	get_audio_buffer_ptr
 762              		.syntax unified
 763              		.thumb
 764              		.thumb_func
 765              		.fpu fpv4-sp-d16
 766              		.type	get_audio_buffer_ptr, %function
 767              	get_audio_buffer_ptr:
 768              	.LFB295:
 769              		.loc 1 198 0
 770              		.cfi_startproc
 771              		@ args = 0, pretend = 0, frame = 8
 772              		@ frame_needed = 0, uses_anonymous_args = 0
 773              	.LVL67:
 774 0000 00B5     		push	{lr}
 775              		.cfi_def_cfa_offset 4
 776              		.cfi_offset 14, -4
 777 0002 164B     		ldr	r3, .L89
 778 0004 83B0     		sub	sp, sp, #12
 779              		.cfi_def_cfa_offset 16
 780              		.loc 1 198 0
 781 0006 1A68     		ldr	r2, [r3]
 782 0008 0192     		str	r2, [sp, #4]
 783              		.loc 1 199 0
 784 000a 88B1     		cbz	r0, .L79
 785              		.loc 1 202 0
 786 000c 0128     		cmp	r0, #1
 787 000e 17D0     		beq	.L80
 788              		.loc 1 205 0
 789 0010 0228     		cmp	r0, #2
 790 0012 19D0     		beq	.L81
 791              		.loc 1 208 0
 792 0014 0328     		cmp	r0, #3
 793 0016 15D0     		beq	.L82
 794              		.loc 1 211 0
 795 0018 0428     		cmp	r0, #4
 796 001a 17D0     		beq	.L83
 797              		.loc 1 214 0
 798 001c 0528     		cmp	r0, #5
ARM GAS  C:\Users\theog\AppData\Local\Temp\ccpFY4cl.s 			page 15


 799 001e 17D0     		beq	.L84
 800              		.loc 1 217 0
 801 0020 0628     		cmp	r0, #6
 802 0022 17D0     		beq	.L85
 803              		.loc 1 224 0
 804 0024 0E4A     		ldr	r2, .L89+4
 805              		.loc 1 220 0
 806 0026 0728     		cmp	r0, #7
 807              		.loc 1 224 0
 808 0028 0CBF     		ite	eq
 809 002a 1046     		moveq	r0, r2
 810              	.LVL68:
 811 002c 0020     		movne	r0, #0
 812 002e 00E0     		b	.L76
 813              	.LVL69:
 814              	.L79:
 815              		.loc 1 200 0
 816 0030 0C48     		ldr	r0, .L89+8
 817              	.LVL70:
 818              	.L76:
 819              		.loc 1 226 0
 820 0032 019A     		ldr	r2, [sp, #4]
 821 0034 1B68     		ldr	r3, [r3]
 822 0036 9A42     		cmp	r2, r3
 823 0038 0ED1     		bne	.L88
 824 003a 03B0     		add	sp, sp, #12
 825              		.cfi_remember_state
 826              		.cfi_def_cfa_offset 4
 827              		@ sp needed
 828 003c 5DF804FB 		ldr	pc, [sp], #4
 829              	.LVL71:
 830              	.L80:
 831              		.cfi_restore_state
 832              		.loc 1 203 0
 833 0040 0948     		ldr	r0, .L89+12
 834              	.LVL72:
 835 0042 F6E7     		b	.L76
 836              	.LVL73:
 837              	.L82:
 838              		.loc 1 209 0
 839 0044 0948     		ldr	r0, .L89+16
 840              	.LVL74:
 841 0046 F4E7     		b	.L76
 842              	.LVL75:
 843              	.L81:
 844              		.loc 1 206 0
 845 0048 0948     		ldr	r0, .L89+20
 846              	.LVL76:
 847 004a F2E7     		b	.L76
 848              	.LVL77:
 849              	.L83:
 850              		.loc 1 212 0
 851 004c 0948     		ldr	r0, .L89+24
 852              	.LVL78:
 853 004e F0E7     		b	.L76
 854              	.LVL79:
 855              	.L84:
ARM GAS  C:\Users\theog\AppData\Local\Temp\ccpFY4cl.s 			page 16


 856              		.loc 1 215 0
 857 0050 0948     		ldr	r0, .L89+28
 858              	.LVL80:
 859 0052 EEE7     		b	.L76
 860              	.LVL81:
 861              	.L85:
 862              		.loc 1 218 0
 863 0054 0948     		ldr	r0, .L89+32
 864              	.LVL82:
 865 0056 ECE7     		b	.L76
 866              	.L88:
 867              		.loc 1 226 0
 868 0058 FFF7FEFF 		bl	__stack_chk_fail
 869              	.LVL83:
 870              	.L90:
 871              		.align	2
 872              	.L89:
 873 005c 00000000 		.word	__stack_chk_guard
 874 0060 00000000 		.word	micBack_output
 875 0064 00000000 		.word	micLeft_cmplx_input
 876 0068 00000000 		.word	micRight_cmplx_input
 877 006c 00000000 		.word	micBack_cmplx_input
 878 0070 00000000 		.word	micFront_cmplx_input
 879 0074 00000000 		.word	micLeft_output
 880 0078 00000000 		.word	micRight_output
 881 007c 00000000 		.word	micFront_output
 882              		.cfi_endproc
 883              	.LFE295:
 884              		.size	get_audio_buffer_ptr, .-get_audio_buffer_ptr
 885              		.section	.bss.micBack_cmplx_input,"aw",%nobits
 886              		.align	2
 887              		.type	micBack_cmplx_input, %object
 888              		.size	micBack_cmplx_input, 8192
 889              	micBack_cmplx_input:
 890 0000 00000000 		.space	8192
 890      00000000 
 890      00000000 
 890      00000000 
 890      00000000 
 891              		.section	.bss.micBack_output,"aw",%nobits
 892              		.align	2
 893              		.type	micBack_output, %object
 894              		.size	micBack_output, 4096
 895              	micBack_output:
 896 0000 00000000 		.space	4096
 896      00000000 
 896      00000000 
 896      00000000 
 896      00000000 
 897              		.section	.bss.micFront_cmplx_input,"aw",%nobits
 898              		.align	2
 899              		.type	micFront_cmplx_input, %object
 900              		.size	micFront_cmplx_input, 8192
 901              	micFront_cmplx_input:
 902 0000 00000000 		.space	8192
 902      00000000 
 902      00000000 
ARM GAS  C:\Users\theog\AppData\Local\Temp\ccpFY4cl.s 			page 17


 902      00000000 
 902      00000000 
 903              		.section	.bss.micFront_output,"aw",%nobits
 904              		.align	2
 905              		.type	micFront_output, %object
 906              		.size	micFront_output, 4096
 907              	micFront_output:
 908 0000 00000000 		.space	4096
 908      00000000 
 908      00000000 
 908      00000000 
 908      00000000 
 909              		.section	.bss.micLeft_cmplx_input,"aw",%nobits
 910              		.align	2
 911              		.type	micLeft_cmplx_input, %object
 912              		.size	micLeft_cmplx_input, 8192
 913              	micLeft_cmplx_input:
 914 0000 00000000 		.space	8192
 914      00000000 
 914      00000000 
 914      00000000 
 914      00000000 
 915              		.section	.bss.micLeft_output,"aw",%nobits
 916              		.align	2
 917              		.type	micLeft_output, %object
 918              		.size	micLeft_output, 4096
 919              	micLeft_output:
 920 0000 00000000 		.space	4096
 920      00000000 
 920      00000000 
 920      00000000 
 920      00000000 
 921              		.section	.bss.micRight_cmplx_input,"aw",%nobits
 922              		.align	2
 923              		.type	micRight_cmplx_input, %object
 924              		.size	micRight_cmplx_input, 8192
 925              	micRight_cmplx_input:
 926 0000 00000000 		.space	8192
 926      00000000 
 926      00000000 
 926      00000000 
 926      00000000 
 927              		.section	.bss.micRight_output,"aw",%nobits
 928              		.align	2
 929              		.type	micRight_output, %object
 930              		.size	micRight_output, 4096
 931              	micRight_output:
 932 0000 00000000 		.space	4096
 932      00000000 
 932      00000000 
 932      00000000 
 932      00000000 
 933              		.section	.bss.mustSend.14186,"aw",%nobits
 934              		.set	.LANCHOR2,. + 0
 935              		.type	mustSend.14186, %object
 936              		.size	mustSend.14186, 1
 937              	mustSend.14186:
ARM GAS  C:\Users\theog\AppData\Local\Temp\ccpFY4cl.s 			page 18


 938 0000 00       		.space	1
 939              		.section	.bss.nb_samples.14185,"aw",%nobits
 940              		.align	1
 941              		.set	.LANCHOR1,. + 0
 942              		.type	nb_samples.14185, %object
 943              		.size	nb_samples.14185, 2
 944              	nb_samples.14185:
 945 0000 0000     		.space	2
 946              		.section	.bss.peak,"aw",%nobits
 947              		.set	.LANCHOR0,. + 0
 948              		.type	peak, %object
 949              		.size	peak, 1
 950              	peak:
 951 0000 00       		.space	1
 952              		.section	.data.sendToComputer_sem,"aw",%progbits
 953              		.align	2
 954              		.set	.LANCHOR3,. + 0
 955              		.type	sendToComputer_sem, %object
 956              		.size	sendToComputer_sem, 12
 957              	sendToComputer_sem:
 958 0000 00000000 		.word	sendToComputer_sem
 959 0004 00000000 		.word	sendToComputer_sem
 960 0008 00000000 		.word	0
 961              		.section	.rodata.__func__.7153,"a",%progbits
 962              		.align	2
 963              		.set	.LANCHOR4,. + 0
 964              		.type	__func__.7153, %object
 965              		.size	__func__.7153, 12
 966              	__func__.7153:
 967 0000 63685379 		.ascii	"chSysUnlock\000"
 967      73556E6C 
 967      6F636B00 
 968              		.text
 969              	.Letext0:
 970              		.file 5 "c:\\epfl_stuff\\eclipse_e-puck2\\tools\\gcc-arm-none-eabi-7-2017-q4-major-win32\\lib\\gcc
 971              		.file 6 "c:\\epfl_stuff\\eclipse_e-puck2\\tools\\gcc-arm-none-eabi-7-2017-q4-major-win32\\arm-none
 972              		.file 7 "c:\\epfl_stuff\\eclipse_e-puck2\\tools\\gcc-arm-none-eabi-7-2017-q4-major-win32\\arm-none
 973              		.file 8 "../../lib/e-puck2_main-processor/ChibiOS//os/rt/ports/ARMCMx/compilers/GCC/chtypes.h"
 974              		.file 9 "../../lib/e-puck2_main-processor/ChibiOS//os/rt/include/chsystypes.h"
 975              		.file 10 "../../lib/e-puck2_main-processor/ChibiOS//os/rt/include/chschd.h"
 976              		.file 11 "../../lib/e-puck2_main-processor/ChibiOS//os/ext/CMSIS/include/core_cm4.h"
 977              		.file 12 "../../lib/e-puck2_main-processor/ChibiOS//os/ext/CMSIS/ST/system_stm32f4xx.h"
 978              		.file 13 "../../lib/e-puck2_main-processor/ChibiOS//os/ext/CMSIS/ST/stm32f407xx.h"
 979              		.file 14 "../../lib/e-puck2_main-processor/ChibiOS//os/rt/ports/ARMCMx/chcore.h"
 980              		.file 15 "../../lib/e-puck2_main-processor/ChibiOS//os/rt/ports/ARMCMx/chcore_v7m.h"
 981              		.file 16 "../../lib/e-puck2_main-processor/ChibiOS//os/rt/include/chdebug.h"
 982              		.file 17 "../../lib/e-puck2_main-processor/ChibiOS//os/rt/include/chtm.h"
 983              		.file 18 "../../lib/e-puck2_main-processor/ChibiOS//os/rt/include/chstats.h"
 984              		.file 19 "../../lib/e-puck2_main-processor/ChibiOS//os/rt/include/chsem.h"
 985              		.file 20 "../../lib/e-puck2_main-processor/ChibiOS//os/rt/include/chmtx.h"
 986              		.file 21 "../../lib/e-puck2_main-processor/ChibiOS//os/rt/include/chregistry.h"
 987              		.file 22 "../../lib/e-puck2_main-processor/ChibiOS//os/rt/include/chevents.h"
 988              		.file 23 "../../lib/e-puck2_main-processor/ChibiOS//os/rt/include/chqueues.h"
 989              		.file 24 "../../lib/e-puck2_main-processor/ChibiOS//os/hal/ports/STM32/STM32F4xx/stm32_dma.h"
 990              		.file 25 "../../lib/e-puck2_main-processor/ChibiOS//os/hal/include/hal_ioblock.h"
 991              		.file 26 "../../lib/e-puck2_main-processor/ChibiOS//os/hal/ports/STM32/LLD/GPIOv2/pal_lld.h"
 992              		.file 27 "../../lib/e-puck2_main-processor/ChibiOS//os/hal/include/adc.h"
ARM GAS  C:\Users\theog\AppData\Local\Temp\ccpFY4cl.s 			page 19


 993              		.file 28 "../../lib/e-puck2_main-processor/ChibiOS//os/hal/ports/STM32/STM32F4xx/adc_lld.h"
 994              		.file 29 "../../lib/e-puck2_main-processor/ChibiOS//os/hal/include/can.h"
 995              		.file 30 "../../lib/e-puck2_main-processor/ChibiOS//os/hal/ports/STM32/LLD/can_lld.h"
 996              		.file 31 "../../lib/e-puck2_main-processor/ChibiOS//os/hal/include/dac.h"
 997              		.file 32 "../../lib/e-puck2_main-processor/ChibiOS//os/hal/ports/STM32/LLD/DACv1/dac_lld.h"
 998              		.file 33 "../../lib/e-puck2_main-processor/ChibiOS//os/hal/include/ext.h"
 999              		.file 34 "../../lib/e-puck2_main-processor/ChibiOS//os/hal/ports/STM32/LLD/ext_lld.h"
 1000              		.file 35 "../../lib/e-puck2_main-processor/ChibiOS//os/hal/include/gpt.h"
 1001              		.file 36 "../../lib/e-puck2_main-processor/ChibiOS//os/hal/ports/STM32/LLD/TIMv1/gpt_lld.h"
 1002              		.file 37 "../../lib/e-puck2_main-processor/ChibiOS//os/hal/ports/STM32/LLD/TIMv1/stm32_tim.h"
 1003              		.file 38 "../../lib/e-puck2_main-processor/ChibiOS//os/hal/include/i2c.h"
 1004              		.file 39 "../../lib/e-puck2_main-processor/ChibiOS//os/hal/ports/STM32/LLD/I2Cv1/i2c_lld.h"
 1005              		.file 40 "../../lib/e-puck2_main-processor/ChibiOS//os/hal/include/i2s.h"
 1006              		.file 41 "../../lib/e-puck2_main-processor/ChibiOS//os/hal/ports/STM32/LLD/SPIv1/i2s_lld.h"
 1007              		.file 42 "../../lib/e-puck2_main-processor/ChibiOS//os/hal/include/pwm.h"
 1008              		.file 43 "../../lib/e-puck2_main-processor/ChibiOS//os/hal/ports/STM32/LLD/TIMv1/pwm_lld.h"
 1009              		.file 44 "../../lib/e-puck2_main-processor/ChibiOS//os/hal/include/serial.h"
 1010              		.file 45 "../../lib/e-puck2_main-processor/ChibiOS//os/hal/ports/STM32/LLD/USARTv1/serial_lld.h"
 1011              		.file 46 "../../lib/e-puck2_main-processor/ChibiOS//os/hal/include/sdc.h"
 1012              		.file 47 "../../lib/e-puck2_main-processor/ChibiOS//os/hal/ports/STM32/LLD/sdc_lld.h"
 1013              		.file 48 "../../lib/e-puck2_main-processor/ChibiOS//os/hal/include/spi.h"
 1014              		.file 49 "../../lib/e-puck2_main-processor/ChibiOS//os/hal/ports/STM32/LLD/SPIv1/spi_lld.h"
 1015              		.file 50 "../../lib/e-puck2_main-processor/ChibiOS//os/hal/include/usb.h"
 1016              		.file 51 "../../lib/e-puck2_main-processor/ChibiOS//os/hal/ports/STM32/LLD/OTGv1/usb_lld.h"
 1017              		.file 52 "../../lib/e-puck2_main-processor/ChibiOS//os/hal/ports/STM32/LLD/OTGv1/stm32_otg.h"
 1018              		.file 53 "../../lib/e-puck2_main-processor/ChibiOS//os/hal/include/serial_usb.h"
 1019              		.file 54 "../../lib/e-puck2_main-processor/ChibiOS_ext/os/hal/include/../ports/STM32/STM32F4xx/dcm
 1020              		.file 55 "c:\\epfl_stuff\\eclipse_e-puck2\\tools\\gcc-arm-none-eabi-7-2017-q4-major-win32\\arm-non
 1021              		.file 56 "c:\\epfl_stuff\\eclipse_e-puck2\\tools\\gcc-arm-none-eabi-7-2017-q4-major-win32\\arm-non
 1022              		.file 57 "c:\\epfl_stuff\\eclipse_e-puck2\\tools\\gcc-arm-none-eabi-7-2017-q4-major-win32\\arm-non
 1023              		.file 58 "../../lib/e-puck2_main-processor/src/msgbus/messagebus.h"
 1024              		.file 59 "c:\\epfl_stuff\\eclipse_e-puck2\\tools\\gcc-arm-none-eabi-7-2017-q4-major-win32\\arm-non
 1025              		.file 60 "c:\\epfl_stuff\\eclipse_e-puck2\\tools\\gcc-arm-none-eabi-7-2017-q4-major-win32\\arm-non
 1026              		.file 61 "../../lib/e-puck2_main-processor/src/parameter/parameter.h"
 1027              		.file 62 "./main.h"
 1028              		.file 63 "../../lib/e-puck2_main-processor/src/usbcfg.h"
 1029              		.file 64 "./audio_processing.h"
 1030              		.file 65 "c:\\epfl_stuff\\eclipse_e-puck2\\tools\\gcc-arm-none-eabi-7-2017-q4-major-win32\\arm-non
 1031              		.file 66 "./fft.h"
 1032              		.file 67 "../../lib/e-puck2_main-processor/ChibiOS//os/ext/CMSIS/include/arm_math.h"
 1033              		.file 68 "../../lib/e-puck2_main-processor/src/motors.h"