ARM GAS  C:\Users\eliot\AppData\Local\Temp\ccKFUOJp.s 			page 1


   1              		.cpu cortex-m4
   2              		.eabi_attribute 27, 1
   3              		.eabi_attribute 28, 1
   4              		.eabi_attribute 20, 1
   5              		.eabi_attribute 21, 1
   6              		.eabi_attribute 23, 3
   7              		.eabi_attribute 24, 1
   8              		.eabi_attribute 25, 1
   9              		.eabi_attribute 26, 1
  10              		.eabi_attribute 30, 2
  11              		.eabi_attribute 34, 1
  12              		.eabi_attribute 18, 4
  13              		.file	"process_image.c"
  14              		.text
  15              	.Ltext0:
  16              		.cfi_sections	.debug_frame
  17              		.section	.text.ProcessImage,"ax",%progbits
  18              		.align	1
  19              		.p2align 4,,15
  20              		.syntax unified
  21              		.thumb
  22              		.thumb_func
  23              		.fpu fpv4-sp-d16
  24              		.type	ProcessImage, %function
  25              	ProcessImage:
  26              	.LFB261:
  27              		.file 1 "process_image.c"
  28              		.loc 1 96 0
  29              		.cfi_startproc
  30              		@ args = 0, pretend = 0, frame = 648
  31              		@ frame_needed = 0, uses_anonymous_args = 0
  32              	.LVL0:
  33 0000 2DE9F043 		push	{r4, r5, r6, r7, r8, r9, lr}
  34              		.cfi_def_cfa_offset 28
  35              		.cfi_offset 4, -28
  36              		.cfi_offset 5, -24
  37              		.cfi_offset 6, -20
  38              		.cfi_offset 7, -16
  39              		.cfi_offset 8, -12
  40              		.cfi_offset 9, -8
  41              		.cfi_offset 14, -4
  42 0004 2DED028B 		vpush.64	{d8}
  43              		.cfi_def_cfa_offset 36
  44              		.cfi_offset 80, -36
  45              		.cfi_offset 81, -32
  46              	.LBB56:
  47              	.LBB57:
  48              		.file 2 "../../lib/e-puck2_main-processor/ChibiOS//os/rt/include/chregistry.h"
  49              		.loc 2 135 0
  50 0008 3C4A     		ldr	r2, .L20
  51              	.LBE57:
  52              	.LBE56:
  53              		.loc 1 96 0
  54 000a 3D4B     		ldr	r3, .L20+4
  55              	.LBB59:
  56              	.LBB58:
  57              		.loc 2 135 0
ARM GAS  C:\Users\eliot\AppData\Local\Temp\ccKFUOJp.s 			page 2


  58 000c 9269     		ldr	r2, [r2, #24]
  59 000e 3D49     		ldr	r1, .L20+8
  60 0010 9161     		str	r1, [r2, #24]
  61              	.LBE58:
  62              	.LBE59:
  63              		.loc 1 96 0
  64 0012 ADF5237D 		sub	sp, sp, #652
  65              		.cfi_def_cfa_offset 688
  66              		.loc 1 96 0
  67 0016 1B68     		ldr	r3, [r3]
  68 0018 A193     		str	r3, [sp, #644]
  69              		.loc 1 102 0
  70 001a 01A8     		add	r0, sp, #4
  71              	.LVL1:
  72 001c 4FF42072 		mov	r2, #640
  73 0020 0021     		movs	r1, #0
  74 0022 FFF7FEFF 		bl	memset
  75              	.LVL2:
  76 0026 384D     		ldr	r5, .L20+12
  77 0028 384C     		ldr	r4, .L20+16
  78              		.loc 1 129 0
  79 002a 9FED398A 		vldr.32	s16, .L20+20
  80              		.loc 1 102 0
  81 002e 0123     		movs	r3, #1
  82 0030 8DF80430 		strb	r3, [sp, #4]
  83 0034 0DF28326 		addw	r6, sp, #643
  84              	.L8:
  85              	.LVL3:
  86              	.LBB60:
  87              	.LBB61:
  88              		.file 3 "../../lib/e-puck2_main-processor/ChibiOS//os/rt/include/chbsem.h"
  89              		.loc 3 143 0
  90 0038 3648     		ldr	r0, .L20+24
  91 003a FFF7FEFF 		bl	chSemWait
  92              	.LVL4:
  93              	.LBE61:
  94              	.LBE60:
  95              		.loc 1 115 0
  96 003e FFF7FEFF 		bl	dcmi_get_last_image_ptr
  97              	.LVL5:
  98 0042 0DF10301 		add	r1, sp, #3
  99 0046 0F46     		mov	r7, r1
 100              	.LBB62:
 101              		.loc 1 121 0
 102 0048 0023     		movs	r3, #0
 103              	.LVL6:
 104              	.L2:
 105              		.loc 1 123 0 discriminator 3
 106 004a 10F81320 		ldrb	r2, [r0, r3, lsl #1]	@ zero_extendqisi2
 107              		.loc 1 121 0 discriminator 3
 108 004e 0133     		adds	r3, r3, #1
 109              	.LVL7:
 110              		.loc 1 123 0 discriminator 3
 111 0050 D208     		lsrs	r2, r2, #3
 112              		.loc 1 121 0 discriminator 3
 113 0052 B3F5207F 		cmp	r3, #640
 114              		.loc 1 123 0 discriminator 3
ARM GAS  C:\Users\eliot\AppData\Local\Temp\ccKFUOJp.s 			page 3


 115 0056 07F8012F 		strb	r2, [r7, #1]!
 116              		.loc 1 121 0 discriminator 3
 117 005a F6D1     		bne	.L2
 118              		.loc 1 121 0 is_stmt 0
 119 005c 0DF10303 		add	r3, sp, #3
 120              	.LVL8:
 121              	.LBE62:
 122              	.LBB63:
 123              	.LBB64:
 124              	.LBB65:
 125              	.LBB66:
 126              		.loc 1 31 0 is_stmt 1
 127 0060 0022     		movs	r2, #0
 128              	.LVL9:
 129              	.L3:
 130 0062 13F8010F 		ldrb	r0, [r3, #1]!	@ zero_extendqisi2
 131              	.LVL10:
 132 0066 8242     		cmp	r2, r0
 133 0068 38BF     		it	cc
 134 006a 0246     		movcc	r2, r0
 135              	.LVL11:
 136              	.LBB67:
 137              		.loc 1 32 0
 138 006c 9E42     		cmp	r6, r3
 139 006e F8D1     		bne	.L3
 140              	.LBE67:
 141              	.LBE66:
 142              	.LBE65:
 143              	.LBB68:
 144              	.LBB69:
 145              		.loc 1 21 0
 146 0070 FF20     		movs	r0, #255
 147              	.L4:
 148              	.LVL12:
 149 0072 11F8017F 		ldrb	r7, [r1, #1]!	@ zero_extendqisi2
 150              	.LVL13:
 151 0076 B842     		cmp	r0, r7
 152 0078 28BF     		it	cs
 153 007a 3846     		movcs	r0, r7
 154              	.LVL14:
 155              	.LBB70:
 156              		.loc 1 22 0
 157 007c 8B42     		cmp	r3, r1
 158 007e F8D1     		bne	.L4
 159              	.LVL15:
 160              	.LBE70:
 161              	.LBE69:
 162              	.LBE68:
 163              		.loc 1 41 0
 164 0080 0327     		movs	r7, #3
 165              	.LBE64:
 166              	.LBE63:
 167              		.loc 1 110 0
 168 0082 4FF00009 		mov	r9, #0
 169              	.LBB76:
 170              	.LBB73:
 171              		.loc 1 41 0
ARM GAS  C:\Users\eliot\AppData\Local\Temp\ccKFUOJp.s 			page 4


 172 0086 17FB0022 		smlabb	r2, r7, r0, r2
 173              	.LVL16:
 174 008a C2F38707 		ubfx	r7, r2, #2, #8
 175              	.LVL17:
 176              	.LBE73:
 177              	.LBE76:
 178              		.loc 1 109 0
 179 008e C846     		mov	r8, r9
 180              	.LBB77:
 181              	.LBB74:
 182              		.loc 1 43 0
 183 0090 CE46     		mov	lr, r9
 184              		.loc 1 42 0
 185 0092 4A46     		mov	r2, r9
 186 0094 0DF13501 		add	r1, sp, #53
 187              	.LBB71:
 188              		.loc 1 45 0
 189 0098 3223     		movs	r3, #50
 190              	.LVL18:
 191 009a 40F24E2C 		movw	ip, #590
 192 009e 05E0     		b	.L7
 193              	.LVL19:
 194              	.L18:
 195              		.loc 1 47 0
 196 00a0 82B2     		uxth	r2, r0
 197              	.LVL20:
 198              		.loc 1 48 0
 199 00a2 1FFA83FE 		uxth	lr, r3
 200              	.LVL21:
 201              	.L6:
 202              		.loc 1 45 0
 203 00a6 0133     		adds	r3, r3, #1
 204              	.LVL22:
 205 00a8 6345     		cmp	r3, ip
 206 00aa 0CD0     		beq	.L17
 207              	.LVL23:
 208              	.L7:
 209              		.loc 1 46 0
 210 00ac 11F8010F 		ldrb	r0, [r1, #1]!	@ zero_extendqisi2
 211 00b0 B842     		cmp	r0, r7
 212              		.loc 1 47 0
 213 00b2 02F10100 		add	r0, r2, #1
 214              		.loc 1 46 0
 215 00b6 F3D3     		bcc	.L18
 216              		.loc 1 51 0
 217 00b8 092A     		cmp	r2, #9
 218 00ba 19D8     		bhi	.L19
 219              		.loc 1 45 0
 220 00bc 0133     		adds	r3, r3, #1
 221              	.LVL24:
 222 00be 6345     		cmp	r3, ip
 223              		.loc 1 52 0
 224 00c0 4FF00002 		mov	r2, #0
 225              	.LVL25:
 226              		.loc 1 45 0
 227 00c4 F2D1     		bne	.L7
 228              	.L17:
ARM GAS  C:\Users\eliot\AppData\Local\Temp\ccKFUOJp.s 			page 5


 229              	.LVL26:
 230              	.LBE71:
 231              	.LBE74:
 232              	.LBE77:
 233              		.loc 1 129 0
 234 00c6 07EE908A 		vmov	s15, r8	@ int
 235              		.loc 1 130 0
 236 00ca C8F34F08 		ubfx	r8, r8, #1, #16
 237              	.LVL27:
 238              		.loc 1 129 0
 239 00ce F8EEE77A 		vcvt.f32.s32	s15, s15
 240 00d2 B3EE017A 		vmov.f32	s14, #1.7e+1
 241              		.loc 1 130 0
 242 00d6 A9EB0808 		sub	r8, r9, r8
 243              		.loc 1 129 0
 244 00da A7EE887A 		vfma.f32	s14, s15, s16
 245              		.loc 1 130 0
 246 00de 07EE908A 		vmov	s15, r8	@ int
 247 00e2 F8EEE77A 		vcvt.f32.s32	s15, s15
 248              		.loc 1 129 0
 249 00e6 85ED007A 		vstr.32	s14, [r5]
 250              		.loc 1 130 0
 251 00ea C4ED007A 		vstr.32	s15, [r4]
 252              		.loc 1 109 0
 253 00ee A3E7     		b	.L8
 254              	.LVL28:
 255              	.L19:
 256              	.LBB78:
 257              	.LBB75:
 258              	.LBB72:
 259              		.loc 1 54 0
 260 00f0 4245     		cmp	r2, r8
 261 00f2 D8D9     		bls	.L6
 262 00f4 F146     		mov	r9, lr
 263 00f6 9046     		mov	r8, r2
 264              	.LVL29:
 265 00f8 D5E7     		b	.L6
 266              	.L21:
 267 00fa 00BF     		.align	2
 268              	.L20:
 269 00fc 00000000 		.word	ch
 270 0100 00000000 		.word	__stack_chk_guard
 271 0104 00000000 		.word	.LANCHOR0
 272 0108 00000000 		.word	.LANCHOR2
 273 010c 00000000 		.word	.LANCHOR3
 274 0110 2A3A12BD 		.word	-1122878934
 275 0114 00000000 		.word	.LANCHOR1
 276              	.LBE72:
 277              	.LBE75:
 278              	.LBE78:
 279              		.cfi_endproc
 280              	.LFE261:
 281              		.size	ProcessImage, .-ProcessImage
 282              		.section	.text.CaptureImage,"ax",%progbits
 283              		.align	1
 284              		.p2align 4,,15
 285              		.syntax unified
ARM GAS  C:\Users\eliot\AppData\Local\Temp\ccKFUOJp.s 			page 6


 286              		.thumb
 287              		.thumb_func
 288              		.fpu fpv4-sp-d16
 289              		.type	CaptureImage, %function
 290              	CaptureImage:
 291              	.LFB260:
 292              		.loc 1 66 0
 293              		.cfi_startproc
 294              		@ Volatile: function does not return.
 295              		@ args = 0, pretend = 0, frame = 8
 296              		@ frame_needed = 0, uses_anonymous_args = 0
 297              	.LVL30:
 298 0000 80B5     		push	{r7, lr}
 299              		.cfi_def_cfa_offset 8
 300              		.cfi_offset 7, -8
 301              		.cfi_offset 14, -4
 302              	.LBB95:
 303              	.LBB96:
 304              		.loc 2 135 0
 305 0002 234C     		ldr	r4, .L28
 306              	.LBE96:
 307              	.LBE95:
 308              		.loc 1 66 0
 309 0004 234A     		ldr	r2, .L28+4
 310              	.LBB99:
 311              	.LBB97:
 312              		.loc 2 135 0
 313 0006 A369     		ldr	r3, [r4, #24]
 314 0008 2349     		ldr	r1, .L28+8
 315              	.LBE97:
 316              	.LBE99:
 317              		.loc 1 66 0
 318 000a 1668     		ldr	r6, [r2]
 319              	.LBB100:
 320              	.LBB98:
 321              		.loc 2 135 0
 322 000c 9961     		str	r1, [r3, #24]
 323              	.LBE98:
 324              	.LBE100:
 325              		.loc 1 66 0
 326 000e 86B0     		sub	sp, sp, #24
 327              		.cfi_def_cfa_offset 32
 328              		.loc 1 72 0
 329 0010 0223     		movs	r3, #2
 330 0012 2025     		movs	r5, #32
 331 0014 0A22     		movs	r2, #10
 332 0016 0021     		movs	r1, #0
 333 0018 0093     		str	r3, [sp]
 334              		.loc 1 66 0
 335 001a 0596     		str	r6, [sp, #20]
 336              		.loc 1 72 0
 337 001c 4FF42073 		mov	r3, #640
 338 0020 CDE90155 		strd	r5, r5, [sp, #4]
 339 0024 3020     		movs	r0, #48
 340              	.LVL31:
 341 0026 1D4E     		ldr	r6, .L28+12
 342              	.LBB101:
ARM GAS  C:\Users\eliot\AppData\Local\Temp\ccKFUOJp.s 			page 7


 343              	.LBB102:
 344              	.LBB103:
 345              	.LBB104:
 346              		.file 4 "../../lib/e-puck2_main-processor/ChibiOS//os/rt/include/chsys.h"
 347              		.loc 4 367 0
 348 0028 1D4F     		ldr	r7, .L28+16
 349              	.LBE104:
 350              	.LBE103:
 351              	.LBE102:
 352              	.LBE101:
 353              		.loc 1 72 0
 354 002a FFF7FEFF 		bl	po8030_advanced_config
 355              	.LVL32:
 356              		.loc 1 73 0
 357 002e FFF7FEFF 		bl	dcmi_enable_double_buffering
 358              	.LVL33:
 359              		.loc 1 74 0
 360 0032 0020     		movs	r0, #0
 361 0034 FFF7FEFF 		bl	dcmi_set_capture_mode
 362              	.LVL34:
 363              	.LBB122:
 364              	.LBB119:
 365              	.LBB109:
 366              	.LBB110:
 367              		.loc 3 271 0
 368 0038 B046     		mov	r8, r6
 369              	.LBE110:
 370              	.LBE109:
 371              	.LBE119:
 372              	.LBE122:
 373              		.loc 1 75 0
 374 003a FFF7FEFF 		bl	dcmi_prepare
 375              	.LVL35:
 376 003e 13E0     		b	.L25
 377              	.LVL36:
 378              	.L23:
 379              	.LBB123:
 380              	.LBB120:
 381              		.loc 3 286 0
 382 0040 FFF7FEFF 		bl	chSchRescheduleS
 383              	.LVL37:
 384              	.LBB112:
 385              	.LBB108:
 386              		.loc 4 360 0
 387 0044 FFF7FEFF 		bl	_dbg_check_unlock
 388              	.LVL38:
 389              		.loc 4 361 0
 390 0048 FFF7FEFF 		bl	_stats_stop_measure_crit_thd
 391              	.LVL39:
 392              		.loc 4 367 0
 393 004c 2368     		ldr	r3, [r4]
 394 004e A342     		cmp	r3, r4
 395 0050 07D0     		beq	.L24
 396 0052 A269     		ldr	r2, [r4, #24]
 397 0054 9B68     		ldr	r3, [r3, #8]
 398 0056 9268     		ldr	r2, [r2, #8]
 399 0058 9A42     		cmp	r2, r3
ARM GAS  C:\Users\eliot\AppData\Local\Temp\ccKFUOJp.s 			page 8


 400 005a 02D2     		bcs	.L24
 401 005c 3846     		mov	r0, r7
 402 005e FFF7FEFF 		bl	chSysHalt
 403              	.LVL40:
 404              	.L24:
 405              	.LBB105:
 406              	.LBB106:
 407              	.LBB107:
 408              		.file 5 "../../lib/e-puck2_main-processor/ChibiOS//os/ext/CMSIS/include/core_cmFunc.h"
 409              		.loc 5 546 0
 410 0062 0023     		movs	r3, #0
 411              		.syntax unified
 412              	@ 546 "../../lib/e-puck2_main-processor/ChibiOS//os/ext/CMSIS/include/core_cmFunc.h" 1
 413 0064 83F31188 		MSR basepri, r3
 414              	@ 0 "" 2
 415              	.LVL41:
 416              		.thumb
 417              		.syntax unified
 418              	.L25:
 419              	.LBE107:
 420              	.LBE106:
 421              	.LBE105:
 422              	.LBE108:
 423              	.LBE112:
 424              	.LBE120:
 425              	.LBE123:
 426              		.loc 1 83 0 discriminator 1
 427 0068 FFF7FEFF 		bl	dcmi_capture_start
 428              	.LVL42:
 429              		.loc 1 85 0 discriminator 1
 430 006c FFF7FEFF 		bl	wait_image_ready
 431              	.LVL43:
 432              	.LBB124:
 433              	.LBB121:
 434              	.LBB113:
 435              	.LBB114:
 436              	.LBB115:
 437              	.LBB116:
 438              	.LBB117:
 439              		.loc 5 546 0 discriminator 1
 440              		.syntax unified
 441              	@ 546 "../../lib/e-puck2_main-processor/ChibiOS//os/ext/CMSIS/include/core_cmFunc.h" 1
 442 0070 85F31188 		MSR basepri, r5
 443              	@ 0 "" 2
 444              	.LVL44:
 445              		.thumb
 446              		.syntax unified
 447              	.LBE117:
 448              	.LBE116:
 449              	.LBE115:
 450              		.loc 4 349 0 discriminator 1
 451 0074 FFF7FEFF 		bl	_stats_start_measure_crit_thd
 452              	.LVL45:
 453              		.loc 4 350 0 discriminator 1
 454 0078 FFF7FEFF 		bl	_dbg_check_lock
 455              	.LVL46:
 456              	.LBE114:
ARM GAS  C:\Users\eliot\AppData\Local\Temp\ccKFUOJp.s 			page 9


 457              	.LBE113:
 458              	.LBB118:
 459              	.LBB111:
 460              		.loc 3 268 0 discriminator 1
 461 007c FFF7FEFF 		bl	chDbgCheckClassI
 462              	.LVL47:
 463              		.loc 3 270 0 discriminator 1
 464 0080 B368     		ldr	r3, [r6, #8]
 465 0082 002B     		cmp	r3, #0
 466 0084 DCDC     		bgt	.L23
 467              		.loc 3 271 0
 468 0086 4046     		mov	r0, r8
 469 0088 FFF7FEFF 		bl	chSemSignalI
 470              	.LVL48:
 471 008c D8E7     		b	.L23
 472              	.L29:
 473 008e 00BF     		.align	2
 474              	.L28:
 475 0090 00000000 		.word	ch
 476 0094 00000000 		.word	__stack_chk_guard
 477 0098 00000000 		.word	.LANCHOR4
 478 009c 00000000 		.word	.LANCHOR1
 479 00a0 00000000 		.word	.LANCHOR5
 480              	.LBE111:
 481              	.LBE118:
 482              	.LBE121:
 483              	.LBE124:
 484              		.cfi_endproc
 485              	.LFE260:
 486              		.size	CaptureImage, .-CaptureImage
 487              		.section	.text.get_distance_cm,"ax",%progbits
 488              		.align	1
 489              		.p2align 4,,15
 490              		.global	get_distance_cm
 491              		.syntax unified
 492              		.thumb
 493              		.thumb_func
 494              		.fpu fpv4-sp-d16
 495              		.type	get_distance_cm, %function
 496              	get_distance_cm:
 497              	.LFB262:
 498              		.loc 1 136 0
 499              		.cfi_startproc
 500              		@ args = 0, pretend = 0, frame = 8
 501              		@ frame_needed = 0, uses_anonymous_args = 0
 502 0000 00B5     		push	{lr}
 503              		.cfi_def_cfa_offset 4
 504              		.cfi_offset 14, -4
 505 0002 084B     		ldr	r3, .L34
 506              		.loc 1 137 0
 507 0004 0849     		ldr	r1, .L34+4
 508              		.loc 1 136 0
 509 0006 1A68     		ldr	r2, [r3]
 510              		.loc 1 138 0
 511 0008 91ED000A 		vldr.32	s0, [r1]
 512              		.loc 1 136 0
 513 000c 83B0     		sub	sp, sp, #12
ARM GAS  C:\Users\eliot\AppData\Local\Temp\ccKFUOJp.s 			page 10


 514              		.cfi_def_cfa_offset 16
 515              		.loc 1 136 0
 516 000e 0192     		str	r2, [sp, #4]
 517              		.loc 1 138 0
 518 0010 019A     		ldr	r2, [sp, #4]
 519 0012 1B68     		ldr	r3, [r3]
 520 0014 9A42     		cmp	r2, r3
 521 0016 02D1     		bne	.L33
 522 0018 03B0     		add	sp, sp, #12
 523              		.cfi_remember_state
 524              		.cfi_def_cfa_offset 4
 525              		@ sp needed
 526 001a 5DF804FB 		ldr	pc, [sp], #4
 527              	.L33:
 528              		.cfi_restore_state
 529 001e FFF7FEFF 		bl	__stack_chk_fail
 530              	.LVL49:
 531              	.L35:
 532 0022 00BF     		.align	2
 533              	.L34:
 534 0024 00000000 		.word	__stack_chk_guard
 535 0028 00000000 		.word	.LANCHOR2
 536              		.cfi_endproc
 537              	.LFE262:
 538              		.size	get_distance_cm, .-get_distance_cm
 539              		.section	.text.get_position_px,"ax",%progbits
 540              		.align	1
 541              		.p2align 4,,15
 542              		.global	get_position_px
 543              		.syntax unified
 544              		.thumb
 545              		.thumb_func
 546              		.fpu fpv4-sp-d16
 547              		.type	get_position_px, %function
 548              	get_position_px:
 549              	.LFB263:
 550              		.loc 1 140 0
 551              		.cfi_startproc
 552              		@ args = 0, pretend = 0, frame = 8
 553              		@ frame_needed = 0, uses_anonymous_args = 0
 554 0000 00B5     		push	{lr}
 555              		.cfi_def_cfa_offset 4
 556              		.cfi_offset 14, -4
 557 0002 084B     		ldr	r3, .L40
 558              		.loc 1 141 0
 559 0004 0849     		ldr	r1, .L40+4
 560              		.loc 1 140 0
 561 0006 1A68     		ldr	r2, [r3]
 562              		.loc 1 142 0
 563 0008 91ED000A 		vldr.32	s0, [r1]
 564              		.loc 1 140 0
 565 000c 83B0     		sub	sp, sp, #12
 566              		.cfi_def_cfa_offset 16
 567              		.loc 1 140 0
 568 000e 0192     		str	r2, [sp, #4]
 569              		.loc 1 142 0
 570 0010 019A     		ldr	r2, [sp, #4]
ARM GAS  C:\Users\eliot\AppData\Local\Temp\ccKFUOJp.s 			page 11


 571 0012 1B68     		ldr	r3, [r3]
 572 0014 9A42     		cmp	r2, r3
 573 0016 02D1     		bne	.L39
 574 0018 03B0     		add	sp, sp, #12
 575              		.cfi_remember_state
 576              		.cfi_def_cfa_offset 4
 577              		@ sp needed
 578 001a 5DF804FB 		ldr	pc, [sp], #4
 579              	.L39:
 580              		.cfi_restore_state
 581 001e FFF7FEFF 		bl	__stack_chk_fail
 582              	.LVL50:
 583              	.L41:
 584 0022 00BF     		.align	2
 585              	.L40:
 586 0024 00000000 		.word	__stack_chk_guard
 587 0028 00000000 		.word	.LANCHOR3
 588              		.cfi_endproc
 589              	.LFE263:
 590              		.size	get_position_px, .-get_position_px
 591              		.section	.text.process_image_start,"ax",%progbits
 592              		.align	1
 593              		.p2align 4,,15
 594              		.global	process_image_start
 595              		.syntax unified
 596              		.thumb
 597              		.thumb_func
 598              		.fpu fpv4-sp-d16
 599              		.type	process_image_start, %function
 600              	process_image_start:
 601              	.LFB264:
 602              		.loc 1 144 0
 603              		.cfi_startproc
 604              		@ args = 0, pretend = 0, frame = 8
 605              		@ frame_needed = 0, uses_anonymous_args = 0
 606 0000 30B5     		push	{r4, r5, lr}
 607              		.cfi_def_cfa_offset 12
 608              		.cfi_offset 4, -12
 609              		.cfi_offset 5, -8
 610              		.cfi_offset 14, -4
 611 0002 0E4C     		ldr	r4, .L46
 612              		.loc 1 145 0
 613 0004 0E4B     		ldr	r3, .L46+4
 614              		.loc 1 144 0
 615 0006 2268     		ldr	r2, [r4]
 616              		.loc 1 145 0
 617 0008 0E48     		ldr	r0, .L46+8
 618              		.loc 1 144 0
 619 000a 85B0     		sub	sp, sp, #20
 620              		.cfi_def_cfa_offset 32
 621              		.loc 1 145 0
 622 000c 0025     		movs	r5, #0
 623              		.loc 1 144 0
 624 000e 0392     		str	r2, [sp, #12]
 625              		.loc 1 145 0
 626 0010 4FF4AF61 		mov	r1, #1400
 627 0014 4022     		movs	r2, #64
ARM GAS  C:\Users\eliot\AppData\Local\Temp\ccKFUOJp.s 			page 12


 628 0016 0095     		str	r5, [sp]
 629 0018 FFF7FEFF 		bl	chThdCreateStatic
 630              	.LVL51:
 631              		.loc 1 146 0
 632 001c 0A4B     		ldr	r3, .L46+12
 633 001e 0095     		str	r5, [sp]
 634 0020 4022     		movs	r2, #64
 635 0022 0A48     		ldr	r0, .L46+16
 636 0024 4FF41E71 		mov	r1, #632
 637 0028 FFF7FEFF 		bl	chThdCreateStatic
 638              	.LVL52:
 639              		.loc 1 147 0
 640 002c 039A     		ldr	r2, [sp, #12]
 641 002e 2368     		ldr	r3, [r4]
 642 0030 9A42     		cmp	r2, r3
 643 0032 01D1     		bne	.L45
 644 0034 05B0     		add	sp, sp, #20
 645              		.cfi_remember_state
 646              		.cfi_def_cfa_offset 12
 647              		@ sp needed
 648 0036 30BD     		pop	{r4, r5, pc}
 649              	.L45:
 650              		.cfi_restore_state
 651 0038 FFF7FEFF 		bl	__stack_chk_fail
 652              	.LVL53:
 653              	.L47:
 654              		.align	2
 655              	.L46:
 656 003c 00000000 		.word	__stack_chk_guard
 657 0040 00000000 		.word	ProcessImage
 658 0044 00000000 		.word	.LANCHOR6
 659 0048 00000000 		.word	CaptureImage
 660 004c 00000000 		.word	.LANCHOR7
 661              		.cfi_endproc
 662              	.LFE264:
 663              		.size	process_image_start, .-process_image_start
 664              		.section	.bss.distance_cm,"aw",%nobits
 665              		.align	2
 666              		.set	.LANCHOR2,. + 0
 667              		.type	distance_cm, %object
 668              		.size	distance_cm, 4
 669              	distance_cm:
 670 0000 00000000 		.space	4
 671              		.section	.bss.position_px,"aw",%nobits
 672              		.align	2
 673              		.set	.LANCHOR3,. + 0
 674              		.type	position_px, %object
 675              		.size	position_px, 4
 676              	position_px:
 677 0000 00000000 		.space	4
 678              		.section	.bss.waCaptureImage,"aw",%nobits
 679              		.align	3
 680              		.set	.LANCHOR7,. + 0
 681              		.type	waCaptureImage, %object
 682              		.size	waCaptureImage, 632
 683              	waCaptureImage:
 684 0000 00000000 		.space	632
ARM GAS  C:\Users\eliot\AppData\Local\Temp\ccKFUOJp.s 			page 13


 684      00000000 
 684      00000000 
 684      00000000 
 684      00000000 
 685              		.section	.bss.waProcessImage,"aw",%nobits
 686              		.align	3
 687              		.set	.LANCHOR6,. + 0
 688              		.type	waProcessImage, %object
 689              		.size	waProcessImage, 1400
 690              	waProcessImage:
 691 0000 00000000 		.space	1400
 691      00000000 
 691      00000000 
 691      00000000 
 691      00000000 
 692              		.section	.data.image_ready_sem,"aw",%progbits
 693              		.align	2
 694              		.set	.LANCHOR1,. + 0
 695              		.type	image_ready_sem, %object
 696              		.size	image_ready_sem, 12
 697              	image_ready_sem:
 698 0000 00000000 		.word	image_ready_sem
 699 0004 00000000 		.word	image_ready_sem
 700 0008 00000000 		.word	0
 701              		.section	.rodata.__FUNCTION__.11360,"a",%progbits
 702              		.align	2
 703              		.set	.LANCHOR4,. + 0
 704              		.type	__FUNCTION__.11360, %object
 705              		.size	__FUNCTION__.11360, 13
 706              	__FUNCTION__.11360:
 707 0000 43617074 		.ascii	"CaptureImage\000"
 707      75726549 
 707      6D616765 
 707      00
 708              		.section	.rodata.__FUNCTION__.11366,"a",%progbits
 709              		.align	2
 710              		.set	.LANCHOR0,. + 0
 711              		.type	__FUNCTION__.11366, %object
 712              		.size	__FUNCTION__.11366, 13
 713              	__FUNCTION__.11366:
 714 0000 50726F63 		.ascii	"ProcessImage\000"
 714      65737349 
 714      6D616765 
 714      00
 715              		.section	.rodata.__func__.7153,"a",%progbits
 716              		.align	2
 717              		.set	.LANCHOR5,. + 0
 718              		.type	__func__.7153, %object
 719              		.size	__func__.7153, 12
 720              	__func__.7153:
 721 0000 63685379 		.ascii	"chSysUnlock\000"
 721      73556E6C 
 721      6F636B00 
 722              		.text
 723              	.Letext0:
 724              		.file 6 "c:\\users\\eliot\\desktop\\ba6\\eclipse\\eclipse_e-puck2\\tools\\gcc-arm-none-eabi-7-2017
 725              		.file 7 "c:\\users\\eliot\\desktop\\ba6\\eclipse\\eclipse_e-puck2\\tools\\gcc-arm-none-eabi-7-2017
ARM GAS  C:\Users\eliot\AppData\Local\Temp\ccKFUOJp.s 			page 14


 726              		.file 8 "c:\\users\\eliot\\desktop\\ba6\\eclipse\\eclipse_e-puck2\\tools\\gcc-arm-none-eabi-7-2017
 727              		.file 9 "../../lib/e-puck2_main-processor/ChibiOS//os/rt/ports/ARMCMx/compilers/GCC/chtypes.h"
 728              		.file 10 "../../lib/e-puck2_main-processor/ChibiOS//os/rt/include/chsystypes.h"
 729              		.file 11 "../../lib/e-puck2_main-processor/ChibiOS//os/rt/include/chschd.h"
 730              		.file 12 "../../lib/e-puck2_main-processor/ChibiOS//os/ext/CMSIS/include/core_cm4.h"
 731              		.file 13 "../../lib/e-puck2_main-processor/ChibiOS//os/ext/CMSIS/ST/system_stm32f4xx.h"
 732              		.file 14 "../../lib/e-puck2_main-processor/ChibiOS//os/ext/CMSIS/ST/stm32f407xx.h"
 733              		.file 15 "../../lib/e-puck2_main-processor/ChibiOS//os/rt/ports/ARMCMx/chcore.h"
 734              		.file 16 "../../lib/e-puck2_main-processor/ChibiOS//os/rt/ports/ARMCMx/chcore_v7m.h"
 735              		.file 17 "../../lib/e-puck2_main-processor/ChibiOS//os/rt/include/chdebug.h"
 736              		.file 18 "../../lib/e-puck2_main-processor/ChibiOS//os/rt/include/chtm.h"
 737              		.file 19 "../../lib/e-puck2_main-processor/ChibiOS//os/rt/include/chstats.h"
 738              		.file 20 "../../lib/e-puck2_main-processor/ChibiOS//os/rt/include/chsem.h"
 739              		.file 21 "../../lib/e-puck2_main-processor/ChibiOS//os/rt/include/chmtx.h"
 740              		.file 22 "../../lib/e-puck2_main-processor/ChibiOS//os/rt/include/chevents.h"
 741              		.file 23 "../../lib/e-puck2_main-processor/ChibiOS//os/rt/include/chqueues.h"
 742              		.file 24 "../../lib/e-puck2_main-processor/ChibiOS//os/hal/ports/STM32/STM32F4xx/stm32_dma.h"
 743              		.file 25 "../../lib/e-puck2_main-processor/ChibiOS//os/hal/include/hal_ioblock.h"
 744              		.file 26 "../../lib/e-puck2_main-processor/ChibiOS//os/hal/ports/STM32/LLD/GPIOv2/pal_lld.h"
 745              		.file 27 "../../lib/e-puck2_main-processor/ChibiOS//os/hal/include/adc.h"
 746              		.file 28 "../../lib/e-puck2_main-processor/ChibiOS//os/hal/ports/STM32/STM32F4xx/adc_lld.h"
 747              		.file 29 "../../lib/e-puck2_main-processor/ChibiOS//os/hal/include/can.h"
 748              		.file 30 "../../lib/e-puck2_main-processor/ChibiOS//os/hal/ports/STM32/LLD/can_lld.h"
 749              		.file 31 "../../lib/e-puck2_main-processor/ChibiOS//os/hal/include/dac.h"
 750              		.file 32 "../../lib/e-puck2_main-processor/ChibiOS//os/hal/ports/STM32/LLD/DACv1/dac_lld.h"
 751              		.file 33 "../../lib/e-puck2_main-processor/ChibiOS//os/hal/include/ext.h"
 752              		.file 34 "../../lib/e-puck2_main-processor/ChibiOS//os/hal/ports/STM32/LLD/ext_lld.h"
 753              		.file 35 "../../lib/e-puck2_main-processor/ChibiOS//os/hal/include/gpt.h"
 754              		.file 36 "../../lib/e-puck2_main-processor/ChibiOS//os/hal/ports/STM32/LLD/TIMv1/gpt_lld.h"
 755              		.file 37 "../../lib/e-puck2_main-processor/ChibiOS//os/hal/ports/STM32/LLD/TIMv1/stm32_tim.h"
 756              		.file 38 "../../lib/e-puck2_main-processor/ChibiOS//os/hal/include/i2c.h"
 757              		.file 39 "../../lib/e-puck2_main-processor/ChibiOS//os/hal/ports/STM32/LLD/I2Cv1/i2c_lld.h"
 758              		.file 40 "../../lib/e-puck2_main-processor/ChibiOS//os/hal/include/i2s.h"
 759              		.file 41 "../../lib/e-puck2_main-processor/ChibiOS//os/hal/ports/STM32/LLD/SPIv1/i2s_lld.h"
 760              		.file 42 "../../lib/e-puck2_main-processor/ChibiOS//os/hal/include/pwm.h"
 761              		.file 43 "../../lib/e-puck2_main-processor/ChibiOS//os/hal/ports/STM32/LLD/TIMv1/pwm_lld.h"
 762              		.file 44 "../../lib/e-puck2_main-processor/ChibiOS//os/hal/include/serial.h"
 763              		.file 45 "../../lib/e-puck2_main-processor/ChibiOS//os/hal/ports/STM32/LLD/USARTv1/serial_lld.h"
 764              		.file 46 "../../lib/e-puck2_main-processor/ChibiOS//os/hal/include/sdc.h"
 765              		.file 47 "../../lib/e-puck2_main-processor/ChibiOS//os/hal/ports/STM32/LLD/sdc_lld.h"
 766              		.file 48 "../../lib/e-puck2_main-processor/ChibiOS//os/hal/include/spi.h"
 767              		.file 49 "../../lib/e-puck2_main-processor/ChibiOS//os/hal/ports/STM32/LLD/SPIv1/spi_lld.h"
 768              		.file 50 "../../lib/e-puck2_main-processor/ChibiOS//os/hal/include/usb.h"
 769              		.file 51 "../../lib/e-puck2_main-processor/ChibiOS//os/hal/ports/STM32/LLD/OTGv1/usb_lld.h"
 770              		.file 52 "../../lib/e-puck2_main-processor/ChibiOS//os/hal/ports/STM32/LLD/OTGv1/stm32_otg.h"
 771              		.file 53 "../../lib/e-puck2_main-processor/ChibiOS//os/hal/include/serial_usb.h"
 772              		.file 54 "../../lib/e-puck2_main-processor/src/usbcfg.h"
 773              		.file 55 "../../lib/e-puck2_main-processor/ChibiOS_ext/os/hal/include/../ports/STM32/STM32F4xx/dcm
 774              		.file 56 "../../lib/e-puck2_main-processor/src/camera/po8030.h"
 775              		.file 57 "../../lib/e-puck2_main-processor/src/camera/dcmi_camera.h"
 776              		.file 58 "c:\\users\\eliot\\desktop\\ba6\\eclipse\\eclipse_e-puck2\\tools\\gcc-arm-none-eabi-7-201
 777              		.file 59 "c:\\users\\eliot\\desktop\\ba6\\eclipse\\eclipse_e-puck2\\tools\\gcc-arm-none-eabi-7-201
 778              		.file 60 "c:\\users\\eliot\\desktop\\ba6\\eclipse\\eclipse_e-puck2\\tools\\gcc-arm-none-eabi-7-201
 779              		.file 61 "../../lib/e-puck2_main-processor/src/msgbus/messagebus.h"
 780              		.file 62 "c:\\users\\eliot\\desktop\\ba6\\eclipse\\eclipse_e-puck2\\tools\\gcc-arm-none-eabi-7-201
 781              		.file 63 "c:\\users\\eliot\\desktop\\ba6\\eclipse\\eclipse_e-puck2\\tools\\gcc-arm-none-eabi-7-201
 782              		.file 64 "../../lib/e-puck2_main-processor/src/parameter/parameter.h"
ARM GAS  C:\Users\eliot\AppData\Local\Temp\ccKFUOJp.s 			page 15


 783              		.file 65 "./main.h"
 784              		.file 66 "../../lib/e-puck2_main-processor/ChibiOS//os/rt/include/chthreads.h"
 785              		.file 67 "<built-in>"