ARM GAS  C:\Users\guill\AppData\Local\Temp\cctspxhA.s 			page 1


   1              		.cpu cortex-m4
   2              		.eabi_attribute 27, 1
   3              		.eabi_attribute 28, 1
   4              		.eabi_attribute 20, 1
   5              		.eabi_attribute 21, 1
   6              		.eabi_attribute 23, 3
   7              		.eabi_attribute 24, 1
   8              		.eabi_attribute 25, 1
   9              		.eabi_attribute 26, 1
  10              		.eabi_attribute 30, 2
  11              		.eabi_attribute 34, 1
  12              		.eabi_attribute 18, 4
  13              		.file	"imu.c"
  14              		.text
  15              	.Ltext0:
  16              		.cfi_sections	.debug_frame
  17              		.section	.text.imu_compute_units,"ax",%progbits
  18              		.align	1
  19              		.p2align 4,,15
  20              		.global	imu_compute_units
  21              		.syntax unified
  22              		.thumb
  23              		.thumb_func
  24              		.fpu fpv4-sp-d16
  25              		.type	imu_compute_units, %function
  26              	imu_compute_units:
  27              	.LFB256:
  28              		.file 1 "imu.c"
  29              		.loc 1 26 0
  30              		.cfi_startproc
  31              		@ args = 0, pretend = 0, frame = 0
  32              		@ frame_needed = 0, uses_anonymous_args = 0
  33              	.LVL0:
  34 0000 1B49     		ldr	r1, .L7
  35              	.LBB51:
  36              		.loc 1 28 0
  37 0002 9FED1C6A 		vldr.32	s12, .L7+4
  38              		.loc 1 29 0
  39 0006 DFED1C6A 		vldr.32	s13, .L7+8
  40              	.LBE51:
  41              		.loc 1 26 0
  42 000a F0B5     		push	{r4, r5, r6, r7, lr}
  43              		.cfi_def_cfa_offset 20
  44              		.cfi_offset 4, -20
  45              		.cfi_offset 5, -16
  46              		.cfi_offset 6, -12
  47              		.cfi_offset 7, -8
  48              		.cfi_offset 14, -4
  49 000c A1F12800 		sub	r0, r1, #40
  50              	.LBB52:
  51              		.loc 1 29 0
  52 0010 1A4E     		ldr	r6, .L7+12
  53 0012 00F10C05 		add	r5, r0, #12
  54              		.loc 1 28 0
  55 0016 41F6FF77 		movw	r7, #8191
  56              		.loc 1 29 0
  57 001a FA24     		movs	r4, #250
ARM GAS  C:\Users\guill\AppData\Local\Temp\cctspxhA.s 			page 2


  58              	.LVL1:
  59              	.L3:
  60              		.loc 1 28 0 discriminator 3
  61 001c 31F9023B 		ldrsh	r3, [r1], #2
  62 0020 B1F90A20 		ldrsh	r2, [r1, #10]
  63              		.loc 1 29 0 discriminator 3
  64 0024 B1F910C0 		ldrsh	ip, [r1, #16]
  65              		.loc 1 28 0 discriminator 3
  66 0028 9A1A     		subs	r2, r3, r2
  67              		.loc 1 29 0 discriminator 3
  68 002a B1F90430 		ldrsh	r3, [r1, #4]
  69 002e A3EB0C03 		sub	r3, r3, ip
  70 0032 04FB03F3 		mul	r3, r4, r3
  71              		.loc 1 28 0 discriminator 3
  72 0036 48BF     		it	mi
  73 0038 D219     		addmi	r2, r2, r7
  74              		.loc 1 29 0 discriminator 3
  75 003a 86FB03EC 		smull	lr, ip, r6, r3
  76              		.loc 1 28 0 discriminator 3
  77 003e 5213     		asrs	r2, r2, #13
  78 0040 07EE102A 		vmov	s14, r2	@ int
  79              		.loc 1 29 0 discriminator 3
  80 0044 0CEB0302 		add	r2, ip, r3
  81 0048 DB17     		asrs	r3, r3, #31
  82 004a C3EB6253 		rsb	r3, r3, r2, asr #21
  83              		.loc 1 28 0 discriminator 3
  84 004e B8EEC77A 		vcvt.f32.s32	s14, s14
  85              		.loc 1 29 0 discriminator 3
  86 0052 07EE903A 		vmov	s15, r3	@ int
  87              		.loc 1 28 0 discriminator 3
  88 0056 27EE067A 		vmul.f32	s14, s14, s12
  89              		.loc 1 29 0 discriminator 3
  90 005a F8EEE77A 		vcvt.f32.s32	s15, s15
  91              		.loc 1 28 0 discriminator 3
  92 005e A0EC017A 		vstmia.32	r0!, {s14}
  93              		.loc 1 29 0 discriminator 3
  94 0062 67EEA67A 		vmul.f32	s15, s15, s13
  95              		.loc 1 27 0 discriminator 3
  96 0066 8542     		cmp	r5, r0
  97              		.loc 1 29 0 discriminator 3
  98 0068 C0ED027A 		vstr.32	s15, [r0, #8]
  99              		.loc 1 27 0 discriminator 3
 100 006c D6D1     		bne	.L3
 101              	.LBE52:
 102              		.loc 1 31 0
 103 006e F0BD     		pop	{r4, r5, r6, r7, pc}
 104              	.L8:
 105              		.align	2
 106              	.L7:
 107 0070 28000000 		.word	.LANCHOR0+40
 108 0074 0AE81C41 		.word	1092413450
 109 0078 DB0F4940 		.word	1078530011
 110 007c B7600BB6 		.word	-1240768329
 111              		.cfi_endproc
 112              	.LFE256:
 113              		.size	imu_compute_units, .-imu_compute_units
 114              		.section	.text.imu_reader_thd,"ax",%progbits
ARM GAS  C:\Users\guill\AppData\Local\Temp\cctspxhA.s 			page 3


 115              		.align	1
 116              		.p2align 4,,15
 117              		.syntax unified
 118              		.thumb
 119              		.thumb_func
 120              		.fpu fpv4-sp-d16
 121              		.type	imu_reader_thd, %function
 122              	imu_reader_thd:
 123              	.LFB257:
 124              		.loc 1 38 0
 125              		.cfi_startproc
 126              		@ args = 0, pretend = 0, frame = 120
 127              		@ frame_needed = 0, uses_anonymous_args = 0
 128              	.LVL2:
 129 0000 2DE9F043 		push	{r4, r5, r6, r7, r8, r9, lr}
 130              		.cfi_def_cfa_offset 28
 131              		.cfi_offset 4, -28
 132              		.cfi_offset 5, -24
 133              		.cfi_offset 6, -20
 134              		.cfi_offset 7, -16
 135              		.cfi_offset 8, -12
 136              		.cfi_offset 9, -8
 137              		.cfi_offset 14, -4
 138              	.LBB73:
 139              	.LBB74:
 140              		.file 2 "../../lib/ChibiOS/os/rt/include/chregistry.h"
 141              		.loc 2 135 0
 142 0004 2F4C     		ldr	r4, .L20
 143 0006 3049     		ldr	r1, .L20+4
 144 0008 A269     		ldr	r2, [r4, #24]
 145              	.LBE74:
 146              	.LBE73:
 147              		.loc 1 46 0
 148 000a 304B     		ldr	r3, .L20+8
 149              	.LBB76:
 150              	.LBB75:
 151              		.loc 2 135 0
 152 000c 9161     		str	r1, [r2, #24]
 153              	.LVL3:
 154              	.LBE75:
 155              	.LBE76:
 156              		.loc 1 38 0
 157 000e A1B0     		sub	sp, sp, #132
 158              		.cfi_def_cfa_offset 160
 159              		.loc 1 44 0
 160 0010 04A8     		add	r0, sp, #16
 161              	.LVL4:
 162              		.loc 1 45 0
 163 0012 02AD     		add	r5, sp, #8
 164              		.loc 1 46 0
 165 0014 5022     		movs	r2, #80
 166 0016 0146     		mov	r1, r0
 167 0018 0092     		str	r2, [sp]
 168              		.loc 1 44 0
 169 001a CDE90400 		strd	r0, r0, [sp, #16]
 170              		.loc 1 46 0
 171 001e 2A46     		mov	r2, r5
ARM GAS  C:\Users\guill\AppData\Local\Temp\cctspxhA.s 			page 4


 172 0020 09A8     		add	r0, sp, #36
 173              		.loc 1 45 0
 174 0022 CDE90255 		strd	r5, r5, [sp, #8]
 175              		.loc 1 44 0
 176 0026 0025     		movs	r5, #0
 177 0028 CDE90655 		strd	r5, r5, [sp, #24]
 178 002c 0895     		str	r5, [sp, #32]
 179              		.loc 1 46 0
 180 002e FFF7FEFF 		bl	messagebus_topic_init
 181              	.LVL5:
 182              		.loc 1 47 0
 183 0032 274A     		ldr	r2, .L20+12
 184 0034 2748     		ldr	r0, .L20+16
 185 0036 09A9     		add	r1, sp, #36
 186 0038 FFF7FEFF 		bl	messagebus_advertise_topic
 187              	.LVL6:
 188              	.LBB77:
 189              	.LBB78:
 190              		.file 3 "../../lib/ChibiOS/os/rt/include/chthreads.h"
 191              		.loc 3 233 0
 192 003c A369     		ldr	r3, [r4, #24]
 193              	.LBE78:
 194              	.LBE77:
 195              		.loc 1 51 0
 196 003e 93F82130 		ldrb	r3, [r3, #33]	@ zero_extendqisi2
 197 0042 5A07     		lsls	r2, r3, #29
 198 0044 3AD4     		bmi	.L9
 199              		.loc 1 56 0
 200 0046 DFF89880 		ldr	r8, .L20+28
 201 004a 234F     		ldr	r7, .L20+20
 202              	.LBB80:
 203              	.LBB81:
 204              	.LBB82:
 205              	.LBB83:
 206              		.file 4 "../../lib/ChibiOS/os/rt/include/chsys.h"
 207              		.loc 4 367 0
 208 004c DFF89490 		ldr	r9, .L20+32
 209              	.LBE83:
 210              	.LBE82:
 211              	.LBE81:
 212              	.LBE80:
 213              		.loc 1 62 0
 214 0050 A8F14C06 		sub	r6, r8, #76
 215 0054 0DE0     		b	.L13
 216              	.L12:
 217 0056 5022     		movs	r2, #80
 218 0058 3146     		mov	r1, r6
 219 005a 09A8     		add	r0, sp, #36
 220 005c FFF7FEFF 		bl	messagebus_topic_publish
 221              	.LVL7:
 222              		.loc 1 64 0
 223 0060 291D     		adds	r1, r5, #4
 224 0062 2846     		mov	r0, r5
 225 0064 FFF7FEFF 		bl	chThdSleepUntilWindowed
 226              	.LVL8:
 227              	.LBB97:
 228              	.LBB79:
ARM GAS  C:\Users\guill\AppData\Local\Temp\cctspxhA.s 			page 5


 229              		.loc 3 233 0
 230 0068 A369     		ldr	r3, [r4, #24]
 231              	.LBE79:
 232              	.LBE97:
 233              		.loc 1 51 0
 234 006a 93F82130 		ldrb	r3, [r3, #33]	@ zero_extendqisi2
 235 006e 5B07     		lsls	r3, r3, #29
 236 0070 24D4     		bmi	.L9
 237              	.L13:
 238              	.LVL9:
 239              	.LBB98:
 240              	.LBB96:
 241              	.LBB88:
 242              	.LBB89:
 243              	.LBB90:
 244              	.LBB91:
 245              	.LBB92:
 246              		.file 5 "../../lib/ChibiOS/os/ext/CMSIS/include/core_cmFunc.h"
 247              		.loc 5 546 0
 248 0072 2023     		movs	r3, #32
 249              		.syntax unified
 250              	@ 546 "../../lib/ChibiOS/os/ext/CMSIS/include/core_cmFunc.h" 1
 251 0074 83F31188 		MSR basepri, r3
 252              	@ 0 "" 2
 253              	.LVL10:
 254              		.thumb
 255              		.syntax unified
 256              	.LBE92:
 257              	.LBE91:
 258              	.LBE90:
 259              		.loc 4 349 0
 260 0078 FFF7FEFF 		bl	_stats_start_measure_crit_thd
 261              	.LVL11:
 262              		.loc 4 350 0
 263 007c FFF7FEFF 		bl	_dbg_check_lock
 264              	.LVL12:
 265              	.LBE89:
 266              	.LBE88:
 267              	.LBB93:
 268              	.LBB94:
 269              		.file 6 "../../lib/ChibiOS/os/rt/include/chvt.h"
 270              		.loc 6 231 0
 271 0080 A56A     		ldr	r5, [r4, #40]
 272              	.LBE94:
 273              	.LBE93:
 274              	.LBB95:
 275              	.LBB87:
 276              		.loc 4 360 0
 277 0082 FFF7FEFF 		bl	_dbg_check_unlock
 278              	.LVL13:
 279              		.loc 4 361 0
 280 0086 FFF7FEFF 		bl	_stats_stop_measure_crit_thd
 281              	.LVL14:
 282              		.loc 4 367 0
 283 008a 2368     		ldr	r3, [r4]
 284 008c A342     		cmp	r3, r4
 285 008e 07D0     		beq	.L11
ARM GAS  C:\Users\guill\AppData\Local\Temp\cctspxhA.s 			page 6


 286 0090 A269     		ldr	r2, [r4, #24]
 287 0092 9B68     		ldr	r3, [r3, #8]
 288 0094 9268     		ldr	r2, [r2, #8]
 289 0096 9A42     		cmp	r2, r3
 290 0098 02D2     		bcs	.L11
 291 009a 4846     		mov	r0, r9
 292 009c FFF7FEFF 		bl	chSysHalt
 293              	.LVL15:
 294              	.L11:
 295              	.LBB84:
 296              	.LBB85:
 297              	.LBB86:
 298              		.loc 5 546 0
 299 00a0 0023     		movs	r3, #0
 300              		.syntax unified
 301              	@ 546 "../../lib/ChibiOS/os/ext/CMSIS/include/core_cmFunc.h" 1
 302 00a2 83F31188 		MSR basepri, r3
 303              	@ 0 "" 2
 304              	.LVL16:
 305              		.thumb
 306              		.syntax unified
 307              	.LBE86:
 308              	.LBE85:
 309              	.LBE84:
 310              	.LBE87:
 311              	.LBE95:
 312              	.LBE96:
 313              	.LBE98:
 314              		.loc 1 54 0
 315 00a6 3B78     		ldrb	r3, [r7]	@ zero_extendqisi2
 316 00a8 002B     		cmp	r3, #0
 317 00aa D4D0     		beq	.L12
 318              		.loc 1 56 0
 319 00ac 0B49     		ldr	r1, .L20+24
 320 00ae 4246     		mov	r2, r8
 321 00b0 881D     		adds	r0, r1, #6
 322 00b2 FFF7FEFF 		bl	mpu9250_read
 323              	.LVL17:
 324              		.loc 1 58 0
 325 00b6 FFF7FEFF 		bl	imu_compute_units
 326              	.LVL18:
 327 00ba CCE7     		b	.L12
 328              	.L9:
 329              		.loc 1 67 0
 330 00bc 21B0     		add	sp, sp, #132
 331              		.cfi_def_cfa_offset 28
 332              		@ sp needed
 333 00be BDE8F083 		pop	{r4, r5, r6, r7, r8, r9, pc}
 334              	.L21:
 335 00c2 00BF     		.align	2
 336              	.L20:
 337 00c4 00000000 		.word	ch
 338 00c8 00000000 		.word	.LANCHOR1
 339 00cc 00000000 		.word	.LANCHOR0
 340 00d0 00000000 		.word	.LC0
 341 00d4 00000000 		.word	bus
 342 00d8 00000000 		.word	.LANCHOR3
ARM GAS  C:\Users\guill\AppData\Local\Temp\cctspxhA.s 			page 7


 343 00dc 28000000 		.word	.LANCHOR0+40
 344 00e0 4C000000 		.word	.LANCHOR0+76
 345 00e4 00000000 		.word	.LANCHOR2
 346              		.cfi_endproc
 347              	.LFE257:
 348              		.size	imu_reader_thd, .-imu_reader_thd
 349              		.section	.text.imu_start,"ax",%progbits
 350              		.align	1
 351              		.p2align 4,,15
 352              		.global	imu_start
 353              		.syntax unified
 354              		.thumb
 355              		.thumb_func
 356              		.fpu fpv4-sp-d16
 357              		.type	imu_start, %function
 358              	imu_start:
 359              	.LFB258:
 360              		.loc 1 75 0
 361              		.cfi_startproc
 362              		@ args = 0, pretend = 0, frame = 0
 363              		@ frame_needed = 0, uses_anonymous_args = 0
 364              	.LVL19:
 365 0000 00B5     		push	{lr}
 366              		.cfi_def_cfa_offset 4
 367              		.cfi_offset 14, -4
 368              		.loc 1 78 0
 369 0002 4FF4C840 		mov	r0, #25600
 370              		.loc 1 75 0
 371 0006 83B0     		sub	sp, sp, #12
 372              		.cfi_def_cfa_offset 16
 373              		.loc 1 78 0
 374 0008 FFF7FEFF 		bl	mpu9250_setup
 375              	.LVL20:
 376              		.loc 1 89 0
 377 000c 10B9     		cbnz	r0, .L23
 378              		.loc 1 90 0
 379 000e 084B     		ldr	r3, .L25
 380 0010 0122     		movs	r2, #1
 381 0012 1A70     		strb	r2, [r3]
 382              	.L23:
 383              		.loc 1 94 0
 384 0014 0023     		movs	r3, #0
 385 0016 0093     		str	r3, [sp]
 386 0018 4022     		movs	r2, #64
 387 001a 064B     		ldr	r3, .L25+4
 388 001c 0648     		ldr	r0, .L25+8
 389              	.LVL21:
 390 001e 4FF4AF61 		mov	r1, #1400
 391 0022 FFF7FEFF 		bl	chThdCreateStatic
 392              	.LVL22:
 393 0026 054B     		ldr	r3, .L25+12
 394 0028 1860     		str	r0, [r3]
 395              		.loc 1 95 0
 396 002a 03B0     		add	sp, sp, #12
 397              		.cfi_def_cfa_offset 4
 398              		@ sp needed
 399 002c 5DF804FB 		ldr	pc, [sp], #4
ARM GAS  C:\Users\guill\AppData\Local\Temp\cctspxhA.s 			page 8


 400              	.L26:
 401              		.align	2
 402              	.L25:
 403 0030 00000000 		.word	.LANCHOR3
 404 0034 00000000 		.word	imu_reader_thd
 405 0038 00000000 		.word	.LANCHOR4
 406 003c 00000000 		.word	.LANCHOR5
 407              		.cfi_endproc
 408              	.LFE258:
 409              		.size	imu_start, .-imu_start
 410              		.section	.text.imu_stop,"ax",%progbits
 411              		.align	1
 412              		.p2align 4,,15
 413              		.global	imu_stop
 414              		.syntax unified
 415              		.thumb
 416              		.thumb_func
 417              		.fpu fpv4-sp-d16
 418              		.type	imu_stop, %function
 419              	imu_stop:
 420              	.LFB259:
 421              		.loc 1 97 0
 422              		.cfi_startproc
 423              		@ args = 0, pretend = 0, frame = 0
 424              		@ frame_needed = 0, uses_anonymous_args = 0
 425 0000 10B5     		push	{r4, lr}
 426              		.cfi_def_cfa_offset 8
 427              		.cfi_offset 4, -8
 428              		.cfi_offset 14, -4
 429              		.loc 1 98 0
 430 0002 054C     		ldr	r4, .L29
 431 0004 2068     		ldr	r0, [r4]
 432 0006 FFF7FEFF 		bl	chThdTerminate
 433              	.LVL23:
 434              		.loc 1 99 0
 435 000a 2068     		ldr	r0, [r4]
 436 000c FFF7FEFF 		bl	chThdWait
 437              	.LVL24:
 438              		.loc 1 100 0
 439 0010 0023     		movs	r3, #0
 440 0012 2360     		str	r3, [r4]
 441              		.loc 1 101 0
 442 0014 10BD     		pop	{r4, pc}
 443              	.L30:
 444 0016 00BF     		.align	2
 445              	.L29:
 446 0018 00000000 		.word	.LANCHOR5
 447              		.cfi_endproc
 448              	.LFE259:
 449              		.size	imu_stop, .-imu_stop
 450              		.section	.text.imu_compute_offset,"ax",%progbits
 451              		.align	1
 452              		.p2align 4,,15
 453              		.global	imu_compute_offset
 454              		.syntax unified
 455              		.thumb
 456              		.thumb_func
ARM GAS  C:\Users\guill\AppData\Local\Temp\cctspxhA.s 			page 9


 457              		.fpu fpv4-sp-d16
 458              		.type	imu_compute_offset, %function
 459              	imu_compute_offset:
 460              	.LFB260:
 461              		.loc 1 103 0
 462              		.cfi_startproc
 463              		@ args = 0, pretend = 0, frame = 88
 464              		@ frame_needed = 0, uses_anonymous_args = 0
 465              	.LVL25:
 466 0000 2DE9F04F 		push	{r4, r5, r6, r7, r8, r9, r10, fp, lr}
 467              		.cfi_def_cfa_offset 36
 468              		.cfi_offset 4, -36
 469              		.cfi_offset 5, -32
 470              		.cfi_offset 6, -28
 471              		.cfi_offset 7, -24
 472              		.cfi_offset 8, -20
 473              		.cfi_offset 9, -16
 474              		.cfi_offset 10, -12
 475              		.cfi_offset 11, -8
 476              		.cfi_offset 14, -4
 477 0004 97B0     		sub	sp, sp, #92
 478              		.cfi_def_cfa_offset 128
 479              	.LBB99:
 480              		.loc 1 111 0
 481 0006 0029     		cmp	r1, #0
 482 0008 47D0     		beq	.L34
 483              	.LBE99:
 484              		.loc 1 108 0
 485 000a 4FF0000A 		mov	r10, #0
 486 000e 0C46     		mov	r4, r1
 487 0010 0190     		str	r0, [sp, #4]
 488 0012 5646     		mov	r6, r10
 489 0014 5746     		mov	r7, r10
 490              		.loc 1 107 0
 491 0016 D046     		mov	r8, r10
 492 0018 D146     		mov	r9, r10
 493 001a D346     		mov	fp, r10
 494              	.LBB116:
 495              		.loc 1 111 0
 496 001c 5546     		mov	r5, r10
 497              	.LVL26:
 498              	.L33:
 499              		.loc 1 112 0 discriminator 3
 500 001e 5022     		movs	r2, #80
 501 0020 02A9     		add	r1, sp, #8
 502 0022 0198     		ldr	r0, [sp, #4]
 503              		.loc 1 111 0 discriminator 3
 504 0024 0135     		adds	r5, r5, #1
 505              	.LVL27:
 506              		.loc 1 112 0 discriminator 3
 507 0026 FFF7FEFF 		bl	messagebus_topic_wait
 508              	.LVL28:
 509              	.LBB100:
 510              	.LBB101:
 511              		.loc 1 127 0 discriminator 3
 512 002a BDF93010 		ldrsh	r1, [sp, #48]
 513 002e BDF93220 		ldrsh	r2, [sp, #50]
ARM GAS  C:\Users\guill\AppData\Local\Temp\cctspxhA.s 			page 10


 514 0032 91FBF4F1 		sdiv	r1, r1, r4
 515 0036 92FBF4F2 		sdiv	r2, r2, r4
 516 003a 8B44     		add	fp, fp, r1
 517              	.LVL29:
 518 003c 9144     		add	r9, r9, r2
 519              	.LVL30:
 520 003e BDF93410 		ldrsh	r1, [sp, #52]
 521              	.LBE101:
 522              	.LBE100:
 523              	.LBB105:
 524              	.LBB106:
 525 0042 BDF93620 		ldrsh	r2, [sp, #54]
 526              	.LBE106:
 527              	.LBE105:
 528              	.LBB110:
 529              	.LBB102:
 530 0046 91FBF4F1 		sdiv	r1, r1, r4
 531              	.LBE102:
 532              	.LBE110:
 533              	.LBB111:
 534              	.LBB107:
 535 004a 92FBF4F2 		sdiv	r2, r2, r4
 536              	.LBE107:
 537              	.LBE111:
 538              	.LBB112:
 539              	.LBB103:
 540 004e 8844     		add	r8, r8, r1
 541              	.LVL31:
 542              	.LBE103:
 543              	.LBE112:
 544              	.LBB113:
 545              	.LBB108:
 546 0050 1744     		add	r7, r7, r2
 547              	.LVL32:
 548 0052 BDF93A10 		ldrsh	r1, [sp, #58]
 549 0056 BDF93820 		ldrsh	r2, [sp, #56]
 550 005a 91FBF4F1 		sdiv	r1, r1, r4
 551 005e 92FBF4F2 		sdiv	r2, r2, r4
 552 0062 5144     		add	r1, r1, r10
 553 0064 1644     		add	r6, r6, r2
 554              	.LVL33:
 555              	.LBE108:
 556              	.LBE113:
 557              		.loc 1 111 0 discriminator 3
 558 0066 A542     		cmp	r5, r4
 559              	.LBB114:
 560              	.LBB104:
 561              		.loc 1 127 0 discriminator 3
 562 0068 0FFA8BFB 		sxth	fp, fp
 563              	.LVL34:
 564 006c 0FFA89F9 		sxth	r9, r9
 565              	.LVL35:
 566 0070 0FFA88F8 		sxth	r8, r8
 567              	.LVL36:
 568              	.LBE104:
 569              	.LBE114:
 570              	.LBB115:
ARM GAS  C:\Users\guill\AppData\Local\Temp\cctspxhA.s 			page 11


 571              	.LBB109:
 572 0074 3FB2     		sxth	r7, r7
 573              	.LVL37:
 574 0076 36B2     		sxth	r6, r6
 575              	.LVL38:
 576 0078 0FFA81FA 		sxth	r10, r1
 577              	.LVL39:
 578              	.LBE109:
 579              	.LBE115:
 580              		.loc 1 111 0 discriminator 3
 581 007c CFD1     		bne	.L33
 582              	.LVL40:
 583              	.L32:
 584              	.LBE116:
 585              	.LBB117:
 586              	.LBB118:
 587              		.loc 1 134 0
 588 007e 0A4A     		ldr	r2, .L37
 589 0080 A2F834B0 		strh	fp, [r2, #52]	@ movhi
 590              	.LVL41:
 591 0084 A2F83690 		strh	r9, [r2, #54]	@ movhi
 592              	.LVL42:
 593 0088 A2F83880 		strh	r8, [r2, #56]	@ movhi
 594              	.LVL43:
 595              	.LBE118:
 596              	.LBE117:
 597              	.LBB119:
 598              	.LBB120:
 599 008c 5787     		strh	r7, [r2, #58]	@ movhi
 600              	.LVL44:
 601 008e 9687     		strh	r6, [r2, #60]	@ movhi
 602              	.LVL45:
 603 0090 A2F83EA0 		strh	r10, [r2, #62]	@ movhi
 604              	.LVL46:
 605              	.LBE120:
 606              	.LBE119:
 607              		.loc 1 121 0
 608 0094 17B0     		add	sp, sp, #92
 609              		.cfi_remember_state
 610              		.cfi_def_cfa_offset 36
 611              		@ sp needed
 612 0096 BDE8F08F 		pop	{r4, r5, r6, r7, r8, r9, r10, fp, pc}
 613              	.LVL47:
 614              	.L34:
 615              		.cfi_restore_state
 616              		.loc 1 108 0
 617 009a 8A46     		mov	r10, r1
 618 009c 0E46     		mov	r6, r1
 619 009e 0F46     		mov	r7, r1
 620              		.loc 1 107 0
 621 00a0 8846     		mov	r8, r1
 622 00a2 8946     		mov	r9, r1
 623 00a4 8B46     		mov	fp, r1
 624 00a6 EAE7     		b	.L32
 625              	.L38:
 626              		.align	2
 627              	.L37:
ARM GAS  C:\Users\guill\AppData\Local\Temp\cctspxhA.s 			page 12


 628 00a8 00000000 		.word	.LANCHOR0
 629              		.cfi_endproc
 630              	.LFE260:
 631              		.size	imu_compute_offset, .-imu_compute_offset
 632              		.section	.text.intArrayAddAndDivise,"ax",%progbits
 633              		.align	1
 634              		.p2align 4,,15
 635              		.global	intArrayAddAndDivise
 636              		.syntax unified
 637              		.thumb
 638              		.thumb_func
 639              		.fpu fpv4-sp-d16
 640              		.type	intArrayAddAndDivise, %function
 641              	intArrayAddAndDivise:
 642              	.LFB261:
 643              		.loc 1 125 0
 644              		.cfi_startproc
 645              		@ args = 0, pretend = 0, frame = 0
 646              		@ frame_needed = 0, uses_anonymous_args = 0
 647              		@ link register save eliminated.
 648              	.LVL48:
 649              	.LBB121:
 650              		.loc 1 126 0
 651 0000 82B1     		cbz	r2, .L47
 652              	.LBE121:
 653              		.loc 1 125 0
 654 0002 30B4     		push	{r4, r5}
 655              		.cfi_def_cfa_offset 8
 656              		.cfi_offset 4, -8
 657              		.cfi_offset 5, -4
 658 0004 00EB4202 		add	r2, r0, r2, lsl #1
 659              	.LVL49:
 660 0008 0239     		subs	r1, r1, #2
 661              	.LVL50:
 662              	.L41:
 663              	.LBB122:
 664              		.loc 1 127 0 discriminator 3
 665 000a B0F90050 		ldrsh	r5, [r0]
 666 000e 31F9024F 		ldrsh	r4, [r1, #2]!
 667 0012 94FBF3F4 		sdiv	r4, r4, r3
 668 0016 2C44     		add	r4, r4, r5
 669 0018 20F8024B 		strh	r4, [r0], #2	@ movhi
 670              		.loc 1 126 0 discriminator 3
 671 001c 8242     		cmp	r2, r0
 672 001e F4D1     		bne	.L41
 673              	.LBE122:
 674              		.loc 1 129 0
 675 0020 30BC     		pop	{r4, r5}
 676              		.cfi_restore 5
 677              		.cfi_restore 4
 678              		.cfi_def_cfa_offset 0
 679 0022 7047     		bx	lr
 680              	.LVL51:
 681              	.L47:
 682 0024 7047     		bx	lr
 683              		.cfi_endproc
 684              	.LFE261:
ARM GAS  C:\Users\guill\AppData\Local\Temp\cctspxhA.s 			page 13


 685              		.size	intArrayAddAndDivise, .-intArrayAddAndDivise
 686 0026 00BF     		.section	.text.intArrayReplace,"ax",%progbits
 687              		.align	1
 688              		.p2align 4,,15
 689              		.global	intArrayReplace
 690              		.syntax unified
 691              		.thumb
 692              		.thumb_func
 693              		.fpu fpv4-sp-d16
 694              		.type	intArrayReplace, %function
 695              	intArrayReplace:
 696              	.LFB262:
 697              		.loc 1 132 0
 698              		.cfi_startproc
 699              		@ args = 0, pretend = 0, frame = 0
 700              		@ frame_needed = 0, uses_anonymous_args = 0
 701              		@ link register save eliminated.
 702              	.LVL52:
 703              	.LBB123:
 704              		.loc 1 133 0
 705 0000 42B1     		cbz	r2, .L50
 706 0002 01EB4202 		add	r2, r1, r2, lsl #1
 707              	.LVL53:
 708 0006 0238     		subs	r0, r0, #2
 709              	.LVL54:
 710              	.L52:
 711              		.loc 1 134 0 discriminator 3
 712 0008 31F9023B 		ldrsh	r3, [r1], #2
 713 000c 20F8023F 		strh	r3, [r0, #2]!	@ movhi
 714              		.loc 1 133 0 discriminator 3
 715 0010 9142     		cmp	r1, r2
 716 0012 F9D1     		bne	.L52
 717              	.L50:
 718              	.LBE123:
 719              		.loc 1 136 0
 720 0014 7047     		bx	lr
 721              		.cfi_endproc
 722              	.LFE262:
 723              		.size	intArrayReplace, .-intArrayReplace
 724 0016 00BF     		.section	.text.get_acc,"ax",%progbits
 725              		.align	1
 726              		.p2align 4,,15
 727              		.global	get_acc
 728              		.syntax unified
 729              		.thumb
 730              		.thumb_func
 731              		.fpu fpv4-sp-d16
 732              		.type	get_acc, %function
 733              	get_acc:
 734              	.LFB263:
 735              		.loc 1 140 0
 736              		.cfi_startproc
 737              		@ args = 0, pretend = 0, frame = 0
 738              		@ frame_needed = 0, uses_anonymous_args = 0
 739              		@ link register save eliminated.
 740              	.LVL55:
 741              		.loc 1 141 0
ARM GAS  C:\Users\guill\AppData\Local\Temp\cctspxhA.s 			page 14


 742 0000 0228     		cmp	r0, #2
 743              		.loc 1 142 0
 744 0002 9DBF     		ittte	ls
 745 0004 1430     		addls	r0, r0, #20
 746              	.LVL56:
 747 0006 024B     		ldrls	r3, .L60
 748 0008 33F91000 		ldrshls	r0, [r3, r0, lsl #1]
 749              		.loc 1 144 0
 750 000c 0020     		movhi	r0, #0
 751              		.loc 1 145 0
 752 000e 7047     		bx	lr
 753              	.L61:
 754              		.align	2
 755              	.L60:
 756 0010 00000000 		.word	.LANCHOR0
 757              		.cfi_endproc
 758              	.LFE263:
 759              		.size	get_acc, .-get_acc
 760              		.section	.text.get_acc_all,"ax",%progbits
 761              		.align	1
 762              		.p2align 4,,15
 763              		.global	get_acc_all
 764              		.syntax unified
 765              		.thumb
 766              		.thumb_func
 767              		.fpu fpv4-sp-d16
 768              		.type	get_acc_all, %function
 769              	get_acc_all:
 770              	.LFB264:
 771              		.loc 1 147 0
 772              		.cfi_startproc
 773              		@ args = 0, pretend = 0, frame = 0
 774              		@ frame_needed = 0, uses_anonymous_args = 0
 775              		@ link register save eliminated.
 776              	.LVL57:
 777              		.loc 1 148 0
 778 0000 054B     		ldr	r3, .L63
 779 0002 B3F92820 		ldrsh	r2, [r3, #40]
 780 0006 0280     		strh	r2, [r0]	@ movhi
 781              		.loc 1 149 0
 782 0008 B3F92A20 		ldrsh	r2, [r3, #42]
 783 000c 4280     		strh	r2, [r0, #2]	@ movhi
 784              		.loc 1 150 0
 785 000e B3F92C30 		ldrsh	r3, [r3, #44]
 786 0012 8380     		strh	r3, [r0, #4]	@ movhi
 787              		.loc 1 151 0
 788 0014 7047     		bx	lr
 789              	.L64:
 790 0016 00BF     		.align	2
 791              	.L63:
 792 0018 00000000 		.word	.LANCHOR0
 793              		.cfi_endproc
 794              	.LFE264:
 795              		.size	get_acc_all, .-get_acc_all
 796              		.section	.text.get_acc_offset,"ax",%progbits
 797              		.align	1
 798              		.p2align 4,,15
ARM GAS  C:\Users\guill\AppData\Local\Temp\cctspxhA.s 			page 15


 799              		.global	get_acc_offset
 800              		.syntax unified
 801              		.thumb
 802              		.thumb_func
 803              		.fpu fpv4-sp-d16
 804              		.type	get_acc_offset, %function
 805              	get_acc_offset:
 806              	.LFB265:
 807              		.loc 1 154 0
 808              		.cfi_startproc
 809              		@ args = 0, pretend = 0, frame = 0
 810              		@ frame_needed = 0, uses_anonymous_args = 0
 811              		@ link register save eliminated.
 812              	.LVL58:
 813              		.loc 1 155 0
 814 0000 0228     		cmp	r0, #2
 815              		.loc 1 156 0
 816 0002 9DBF     		ittte	ls
 817 0004 034B     		ldrls	r3, .L68
 818 0006 03EB4000 		addls	r0, r3, r0, lsl #1
 819              	.LVL59:
 820 000a B0F93400 		ldrshls	r0, [r0, #52]
 821              		.loc 1 158 0
 822 000e 0020     		movhi	r0, #0
 823              		.loc 1 159 0
 824 0010 7047     		bx	lr
 825              	.L69:
 826 0012 00BF     		.align	2
 827              	.L68:
 828 0014 00000000 		.word	.LANCHOR0
 829              		.cfi_endproc
 830              	.LFE265:
 831              		.size	get_acc_offset, .-get_acc_offset
 832              		.section	.text.get_acceleration,"ax",%progbits
 833              		.align	1
 834              		.p2align 4,,15
 835              		.global	get_acceleration
 836              		.syntax unified
 837              		.thumb
 838              		.thumb_func
 839              		.fpu fpv4-sp-d16
 840              		.type	get_acceleration, %function
 841              	get_acceleration:
 842              	.LFB266:
 843              		.loc 1 161 0
 844              		.cfi_startproc
 845              		@ args = 0, pretend = 0, frame = 0
 846              		@ frame_needed = 0, uses_anonymous_args = 0
 847              		@ link register save eliminated.
 848              	.LVL60:
 849              		.loc 1 162 0
 850 0000 0228     		cmp	r0, #2
 851              		.loc 1 163 0
 852 0002 9DBF     		ittte	ls
 853 0004 034B     		ldrls	r3, .L73
 854 0006 03EB8000 		addls	r0, r3, r0, lsl #2
 855              	.LVL61:
ARM GAS  C:\Users\guill\AppData\Local\Temp\cctspxhA.s 			page 16


 856 000a 90ED000A 		vldrls.32	s0, [r0]
 857              		.loc 1 165 0
 858 000e 9FED020A 		vldrhi.32	s0, .L73+4
 859              		.loc 1 166 0
 860 0012 7047     		bx	lr
 861              	.L74:
 862              		.align	2
 863              	.L73:
 864 0014 00000000 		.word	.LANCHOR0
 865 0018 00000000 		.word	0
 866              		.cfi_endproc
 867              	.LFE266:
 868              		.size	get_acceleration, .-get_acceleration
 869              		.section	.text.get_gyro,"ax",%progbits
 870              		.align	1
 871              		.p2align 4,,15
 872              		.global	get_gyro
 873              		.syntax unified
 874              		.thumb
 875              		.thumb_func
 876              		.fpu fpv4-sp-d16
 877              		.type	get_gyro, %function
 878              	get_gyro:
 879              	.LFB267:
 880              		.loc 1 169 0
 881              		.cfi_startproc
 882              		@ args = 0, pretend = 0, frame = 0
 883              		@ frame_needed = 0, uses_anonymous_args = 0
 884              		@ link register save eliminated.
 885              	.LVL62:
 886              		.loc 1 170 0
 887 0000 0228     		cmp	r0, #2
 888              		.loc 1 171 0
 889 0002 9DBF     		ittte	ls
 890 0004 034B     		ldrls	r3, .L78
 891 0006 03EB4000 		addls	r0, r3, r0, lsl #1
 892              	.LVL63:
 893 000a B0F92E00 		ldrshls	r0, [r0, #46]
 894              		.loc 1 173 0
 895 000e 0020     		movhi	r0, #0
 896              		.loc 1 174 0
 897 0010 7047     		bx	lr
 898              	.L79:
 899 0012 00BF     		.align	2
 900              	.L78:
 901 0014 00000000 		.word	.LANCHOR0
 902              		.cfi_endproc
 903              	.LFE267:
 904              		.size	get_gyro, .-get_gyro
 905              		.section	.text.get_gyro_all,"ax",%progbits
 906              		.align	1
 907              		.p2align 4,,15
 908              		.global	get_gyro_all
 909              		.syntax unified
 910              		.thumb
 911              		.thumb_func
 912              		.fpu fpv4-sp-d16
ARM GAS  C:\Users\guill\AppData\Local\Temp\cctspxhA.s 			page 17


 913              		.type	get_gyro_all, %function
 914              	get_gyro_all:
 915              	.LFB268:
 916              		.loc 1 176 0
 917              		.cfi_startproc
 918              		@ args = 0, pretend = 0, frame = 0
 919              		@ frame_needed = 0, uses_anonymous_args = 0
 920              		@ link register save eliminated.
 921              	.LVL64:
 922              		.loc 1 177 0
 923 0000 054B     		ldr	r3, .L81
 924 0002 B3F92E20 		ldrsh	r2, [r3, #46]
 925 0006 0280     		strh	r2, [r0]	@ movhi
 926              		.loc 1 178 0
 927 0008 B3F93020 		ldrsh	r2, [r3, #48]
 928 000c 4280     		strh	r2, [r0, #2]	@ movhi
 929              		.loc 1 179 0
 930 000e B3F93230 		ldrsh	r3, [r3, #50]
 931 0012 8380     		strh	r3, [r0, #4]	@ movhi
 932              		.loc 1 180 0
 933 0014 7047     		bx	lr
 934              	.L82:
 935 0016 00BF     		.align	2
 936              	.L81:
 937 0018 00000000 		.word	.LANCHOR0
 938              		.cfi_endproc
 939              	.LFE268:
 940              		.size	get_gyro_all, .-get_gyro_all
 941              		.section	.text.get_gyro_offset,"ax",%progbits
 942              		.align	1
 943              		.p2align 4,,15
 944              		.global	get_gyro_offset
 945              		.syntax unified
 946              		.thumb
 947              		.thumb_func
 948              		.fpu fpv4-sp-d16
 949              		.type	get_gyro_offset, %function
 950              	get_gyro_offset:
 951              	.LFB269:
 952              		.loc 1 182 0
 953              		.cfi_startproc
 954              		@ args = 0, pretend = 0, frame = 0
 955              		@ frame_needed = 0, uses_anonymous_args = 0
 956              		@ link register save eliminated.
 957              	.LVL65:
 958              		.loc 1 183 0
 959 0000 0228     		cmp	r0, #2
 960              		.loc 1 184 0
 961 0002 9DBF     		ittte	ls
 962 0004 034B     		ldrls	r3, .L86
 963 0006 03EB4000 		addls	r0, r3, r0, lsl #1
 964              	.LVL66:
 965 000a B0F93A00 		ldrshls	r0, [r0, #58]
 966              		.loc 1 186 0
 967 000e 0020     		movhi	r0, #0
 968              		.loc 1 187 0
 969 0010 7047     		bx	lr
ARM GAS  C:\Users\guill\AppData\Local\Temp\cctspxhA.s 			page 18


 970              	.L87:
 971 0012 00BF     		.align	2
 972              	.L86:
 973 0014 00000000 		.word	.LANCHOR0
 974              		.cfi_endproc
 975              	.LFE269:
 976              		.size	get_gyro_offset, .-get_gyro_offset
 977              		.section	.text.get_gyro_rate,"ax",%progbits
 978              		.align	1
 979              		.p2align 4,,15
 980              		.global	get_gyro_rate
 981              		.syntax unified
 982              		.thumb
 983              		.thumb_func
 984              		.fpu fpv4-sp-d16
 985              		.type	get_gyro_rate, %function
 986              	get_gyro_rate:
 987              	.LFB270:
 988              		.loc 1 189 0
 989              		.cfi_startproc
 990              		@ args = 0, pretend = 0, frame = 0
 991              		@ frame_needed = 0, uses_anonymous_args = 0
 992              		@ link register save eliminated.
 993              	.LVL67:
 994              		.loc 1 190 0
 995 0000 0228     		cmp	r0, #2
 996              		.loc 1 191 0
 997 0002 9DBF     		ittte	ls
 998 0004 034B     		ldrls	r3, .L91
 999 0006 03EB8000 		addls	r0, r3, r0, lsl #2
 1000              	.LVL68:
 1001 000a 90ED030A 		vldrls.32	s0, [r0, #12]
 1002              		.loc 1 193 0
 1003 000e 9FED020A 		vldrhi.32	s0, .L91+4
 1004              		.loc 1 194 0
 1005 0012 7047     		bx	lr
 1006              	.L92:
 1007              		.align	2
 1008              	.L91:
 1009 0014 00000000 		.word	.LANCHOR0
 1010 0018 00000000 		.word	0
 1011              		.cfi_endproc
 1012              	.LFE270:
 1013              		.size	get_gyro_rate, .-get_gyro_rate
 1014              		.section	.text.get_temperature,"ax",%progbits
 1015              		.align	1
 1016              		.p2align 4,,15
 1017              		.global	get_temperature
 1018              		.syntax unified
 1019              		.thumb
 1020              		.thumb_func
 1021              		.fpu fpv4-sp-d16
 1022              		.type	get_temperature, %function
 1023              	get_temperature:
 1024              	.LFB271:
 1025              		.loc 1 196 0
 1026              		.cfi_startproc
ARM GAS  C:\Users\guill\AppData\Local\Temp\cctspxhA.s 			page 19


 1027              		@ args = 0, pretend = 0, frame = 0
 1028              		@ frame_needed = 0, uses_anonymous_args = 0
 1029              		@ link register save eliminated.
 1030              		.loc 1 197 0
 1031 0000 014B     		ldr	r3, .L94
 1032              		.loc 1 198 0
 1033 0002 93ED060A 		vldr.32	s0, [r3, #24]
 1034 0006 7047     		bx	lr
 1035              	.L95:
 1036              		.align	2
 1037              	.L94:
 1038 0008 00000000 		.word	.LANCHOR0
 1039              		.cfi_endproc
 1040              	.LFE271:
 1041              		.size	get_temperature, .-get_temperature
 1042              		.section	.bss.imuThd,"aw",%nobits
 1043              		.align	2
 1044              		.set	.LANCHOR5,. + 0
 1045              		.type	imuThd, %object
 1046              		.size	imuThd, 4
 1047              	imuThd:
 1048 0000 00000000 		.space	4
 1049              		.section	.bss.imu_configured,"aw",%nobits
 1050              		.set	.LANCHOR3,. + 0
 1051              		.type	imu_configured, %object
 1052              		.size	imu_configured, 1
 1053              	imu_configured:
 1054 0000 00       		.space	1
 1055              		.section	.bss.imu_reader_thd_wa.10154,"aw",%nobits
 1056              		.align	3
 1057              		.set	.LANCHOR4,. + 0
 1058              		.type	imu_reader_thd_wa.10154, %object
 1059              		.size	imu_reader_thd_wa.10154, 1400
 1060              	imu_reader_thd_wa.10154:
 1061 0000 00000000 		.space	1400
 1061      00000000 
 1061      00000000 
 1061      00000000 
 1061      00000000 
 1062              		.section	.bss.imu_values,"aw",%nobits
 1063              		.align	2
 1064              		.set	.LANCHOR0,. + 0
 1065              		.type	imu_values, %object
 1066              		.size	imu_values, 80
 1067              	imu_values:
 1068 0000 00000000 		.space	80
 1068      00000000 
 1068      00000000 
 1068      00000000 
 1068      00000000 
 1069              		.section	.rodata.__FUNCTION__.10142,"a",%progbits
 1070              		.align	2
 1071              		.set	.LANCHOR1,. + 0
 1072              		.type	__FUNCTION__.10142, %object
 1073              		.size	__FUNCTION__.10142, 15
 1074              	__FUNCTION__.10142:
 1075 0000 696D755F 		.ascii	"imu_reader_thd\000"
ARM GAS  C:\Users\guill\AppData\Local\Temp\cctspxhA.s 			page 20


 1075      72656164 
 1075      65725F74 
 1075      686400
 1076              		.section	.rodata.__func__.7153,"a",%progbits
 1077              		.align	2
 1078              		.set	.LANCHOR2,. + 0
 1079              		.type	__func__.7153, %object
 1080              		.size	__func__.7153, 12
 1081              	__func__.7153:
 1082 0000 63685379 		.ascii	"chSysUnlock\000"
 1082      73556E6C 
 1082      6F636B00 
 1083              		.section	.rodata.imu_reader_thd.str1.4,"aMS",%progbits,1
 1084              		.align	2
 1085              	.LC0:
 1086 0000 2F696D75 		.ascii	"/imu\000"
 1086      00
 1087              		.text
 1088              	.Letext0:
 1089              		.file 7 "c:\\users\\guill\\desktop\\tp robotique\\eclipse_e-puck2\\tools\\gcc-arm-none-eabi-7-2017
 1090              		.file 8 "c:\\users\\guill\\desktop\\tp robotique\\eclipse_e-puck2\\tools\\gcc-arm-none-eabi-7-2017
 1091              		.file 9 "c:\\users\\guill\\desktop\\tp robotique\\eclipse_e-puck2\\tools\\gcc-arm-none-eabi-7-2017
 1092              		.file 10 "../../lib/ChibiOS/os/rt/ports/ARMCMx/compilers/GCC/chtypes.h"
 1093              		.file 11 "../../lib/ChibiOS/os/rt/include/chsystypes.h"
 1094              		.file 12 "../../lib/ChibiOS/os/rt/include/chschd.h"
 1095              		.file 13 "../../lib/ChibiOS/os/ext/CMSIS/include/core_cm4.h"
 1096              		.file 14 "../../lib/ChibiOS/os/ext/CMSIS/ST/system_stm32f4xx.h"
 1097              		.file 15 "../../lib/ChibiOS/os/ext/CMSIS/ST/stm32f407xx.h"
 1098              		.file 16 "../../lib/ChibiOS/os/rt/ports/ARMCMx/chcore.h"
 1099              		.file 17 "../../lib/ChibiOS/os/rt/ports/ARMCMx/chcore_v7m.h"
 1100              		.file 18 "../../lib/ChibiOS/os/rt/include/chdebug.h"
 1101              		.file 19 "../../lib/ChibiOS/os/rt/include/chtm.h"
 1102              		.file 20 "../../lib/ChibiOS/os/rt/include/chstats.h"
 1103              		.file 21 "../../lib/ChibiOS/os/rt/include/chsem.h"
 1104              		.file 22 "../../lib/ChibiOS/os/rt/include/chmtx.h"
 1105              		.file 23 "../../lib/ChibiOS/os/rt/include/chcond.h"
 1106              		.file 24 "../../lib/ChibiOS/os/rt/include/chevents.h"
 1107              		.file 25 "../../lib/ChibiOS/os/rt/include/chqueues.h"
 1108              		.file 26 "../../lib/ChibiOS/os/hal/ports/STM32/STM32F4xx/stm32_dma.h"
 1109              		.file 27 "../../lib/ChibiOS/os/hal/ports/STM32/LLD/GPIOv2/pal_lld.h"
 1110              		.file 28 "../../lib/ChibiOS/os/hal/include/gpt.h"
 1111              		.file 29 "../../lib/ChibiOS/os/hal/ports/STM32/LLD/TIMv1/gpt_lld.h"
 1112              		.file 30 "../../lib/ChibiOS/os/hal/ports/STM32/LLD/TIMv1/stm32_tim.h"
 1113              		.file 31 "../../lib/ChibiOS/os/hal/include/i2c.h"
 1114              		.file 32 "../../lib/ChibiOS/os/hal/ports/STM32/LLD/I2Cv1/i2c_lld.h"
 1115              		.file 33 "../../lib/ChibiOS/os/hal/include/serial.h"
 1116              		.file 34 "../../lib/ChibiOS/os/hal/ports/STM32/LLD/USARTv1/serial_lld.h"
 1117              		.file 35 "../../lib/ChibiOS/os/hal/include/usb.h"
 1118              		.file 36 "../../lib/ChibiOS/os/hal/ports/STM32/LLD/OTGv1/usb_lld.h"
 1119              		.file 37 "../../lib/ChibiOS/os/hal/ports/STM32/LLD/OTGv1/stm32_otg.h"
 1120              		.file 38 "c:\\users\\guill\\desktop\\tp robotique\\eclipse_e-puck2\\tools\\gcc-arm-none-eabi-7-201
 1121              		.file 39 "c:\\users\\guill\\desktop\\tp robotique\\eclipse_e-puck2\\tools\\gcc-arm-none-eabi-7-201
 1122              		.file 40 "c:\\users\\guill\\desktop\\tp robotique\\eclipse_e-puck2\\tools\\gcc-arm-none-eabi-7-201
 1123              		.file 41 "c:\\users\\guill\\desktop\\tp robotique\\eclipse_e-puck2\\tools\\gcc-arm-none-eabi-7-201
 1124              		.file 42 "c:\\users\\guill\\desktop\\tp robotique\\eclipse_e-puck2\\tools\\gcc-arm-none-eabi-7-201
 1125              		.file 43 "../../lib/msgbus/messagebus.h"
 1126              		.file 44 "./mpu9250.h"
ARM GAS  C:\Users\guill\AppData\Local\Temp\cctspxhA.s 			page 21


 1127              		.file 45 "./imu.h"