ARM GAS  C:\Users\eliot\AppData\Local\Temp\ccSV69EM.s 			page 1


   1              		.cpu cortex-m4
   2              		.eabi_attribute 27, 1
   3              		.eabi_attribute 28, 1
   4              		.eabi_attribute 20, 1
   5              		.eabi_attribute 21, 1
   6              		.eabi_attribute 23, 3
   7              		.eabi_attribute 24, 1
   8              		.eabi_attribute 25, 1
   9              		.eabi_attribute 26, 1
  10              		.eabi_attribute 30, 2
  11              		.eabi_attribute 34, 1
  12              		.eabi_attribute 18, 4
  13              		.file	"main.c"
  14              		.text
  15              	.Ltext0:
  16              		.cfi_sections	.debug_frame
  17              		.section	.text.chprintf.constprop.0,"ax",%progbits
  18              		.align	1
  19              		.p2align 4,,15
  20              		.syntax unified
  21              		.thumb
  22              		.thumb_func
  23              		.fpu fpv4-sp-d16
  24              		.type	chprintf.constprop.0, %function
  25              	chprintf.constprop.0:
  26              	.LFB264:
  27              		.file 1 "../../lib/ChibiOS/os/hal/lib/streams/chprintf.h"
  28              		.loc 1 69 0
  29              		.cfi_startproc
  30              		@ args = 4, pretend = 12, frame = 8
  31              		@ frame_needed = 0, uses_anonymous_args = 1
  32              	.LVL0:
  33 0000 0EB4     		push	{r1, r2, r3}
  34              		.cfi_def_cfa_offset 12
  35              		.cfi_offset 1, -12
  36              		.cfi_offset 2, -8
  37              		.cfi_offset 3, -4
  38 0002 00B5     		push	{lr}
  39              		.cfi_def_cfa_offset 16
  40              		.cfi_offset 14, -16
  41 0004 82B0     		sub	sp, sp, #8
  42              		.cfi_def_cfa_offset 24
  43              		.loc 1 69 0
  44 0006 03AA     		add	r2, sp, #12
  45              		.loc 1 74 0
  46 0008 0548     		ldr	r0, .L4
  47              	.LVL1:
  48              		.loc 1 69 0
  49 000a 52F8041B 		ldr	r1, [r2], #4
  50              		.loc 1 73 0
  51 000e 0192     		str	r2, [sp, #4]
  52              		.loc 1 74 0
  53 0010 FFF7FEFF 		bl	chvprintf
  54              	.LVL2:
  55              		.loc 1 78 0
  56 0014 02B0     		add	sp, sp, #8
  57              		.cfi_def_cfa_offset 16
ARM GAS  C:\Users\eliot\AppData\Local\Temp\ccSV69EM.s 			page 2


  58              		@ sp needed
  59 0016 5DF804EB 		ldr	lr, [sp], #4
  60              		.cfi_restore 14
  61              		.cfi_def_cfa_offset 12
  62 001a 03B0     		add	sp, sp, #12
  63              		.cfi_restore 3
  64              		.cfi_restore 2
  65              		.cfi_restore 1
  66              		.cfi_def_cfa_offset 0
  67 001c 7047     		bx	lr
  68              	.L5:
  69 001e 00BF     		.align	2
  70              	.L4:
  71 0020 00000000 		.word	SD3
  72              		.cfi_endproc
  73              	.LFE264:
  74              		.size	chprintf.constprop.0, .-chprintf.constprop.0
  75              		.section	.text.panic_handler,"ax",%progbits
  76              		.align	1
  77              		.p2align 4,,15
  78              		.global	panic_handler
  79              		.syntax unified
  80              		.thumb
  81              		.thumb_func
  82              		.fpu fpv4-sp-d16
  83              		.type	panic_handler, %function
  84              	panic_handler:
  85              	.LFB257:
  86              		.file 2 "main.c"
  87              		.loc 2 16 0
  88              		.cfi_startproc
  89              		@ Volatile: function does not return.
  90              		@ args = 0, pretend = 0, frame = 0
  91              		@ frame_needed = 0, uses_anonymous_args = 0
  92              		@ link register save eliminated.
  93              	.LVL3:
  94              		.loc 2 19 0
  95 0000 084B     		ldr	r3, .L8
  96              		.loc 2 24 0
  97 0002 094A     		ldr	r2, .L8+4
  98              		.loc 2 19 0
  99 0004 2020     		movs	r0, #32
 100              	.LVL4:
 101              		.loc 2 20 0
 102 0006 4021     		movs	r1, #64
 103              		.loc 2 19 0
 104 0008 5883     		strh	r0, [r3, #26]	@ movhi
 105              		.loc 2 21 0
 106 000a 4FF48065 		mov	r5, #1024
 107              		.loc 2 20 0
 108 000e 5983     		strh	r1, [r3, #26]	@ movhi
 109              		.loc 2 22 0
 110 0010 4FF40064 		mov	r4, #2048
 111              		.loc 2 23 0
 112 0014 4FF48040 		mov	r0, #16384
 113              		.loc 2 24 0
 114 0018 0421     		movs	r1, #4
ARM GAS  C:\Users\eliot\AppData\Local\Temp\ccSV69EM.s 			page 3


 115              		.loc 2 21 0
 116 001a 5D83     		strh	r5, [r3, #26]	@ movhi
 117              		.loc 2 22 0
 118 001c 5C83     		strh	r4, [r3, #26]	@ movhi
 119              		.loc 2 23 0
 120 001e 5883     		strh	r0, [r3, #26]	@ movhi
 121              		.loc 2 24 0
 122 0020 5183     		strh	r1, [r2, #26]	@ movhi
 123              	.L7:
 124 0022 FEE7     		b	.L7
 125              	.L9:
 126              		.align	2
 127              	.L8:
 128 0024 000C0240 		.word	1073875968
 129 0028 00040240 		.word	1073873920
 130              		.cfi_endproc
 131              	.LFE257:
 132              		.size	panic_handler, .-panic_handler
 133              		.global	__aeabi_f2d
 134              		.section	.text.show_gravity,"ax",%progbits
 135              		.align	1
 136              		.p2align 4,,15
 137              		.global	show_gravity
 138              		.syntax unified
 139              		.thumb
 140              		.thumb_func
 141              		.fpu fpv4-sp-d16
 142              		.type	show_gravity, %function
 143              	show_gravity:
 144              	.LFB262:
 145              		.loc 2 111 0
 146              		.cfi_startproc
 147              		@ args = 0, pretend = 0, frame = 8
 148              		@ frame_needed = 0, uses_anonymous_args = 0
 149              	.LVL5:
 150 0000 2DE9F047 		push	{r4, r5, r6, r7, r8, r9, r10, lr}
 151              		.cfi_def_cfa_offset 32
 152              		.cfi_offset 4, -32
 153              		.cfi_offset 5, -28
 154              		.cfi_offset 6, -24
 155              		.cfi_offset 7, -20
 156              		.cfi_offset 8, -16
 157              		.cfi_offset 9, -12
 158              		.cfi_offset 10, -8
 159              		.cfi_offset 14, -4
 160 0004 2DED028B 		vpush.64	{d8}
 161              		.cfi_def_cfa_offset 40
 162              		.cfi_offset 80, -40
 163              		.cfi_offset 81, -36
 164 0008 82B0     		sub	sp, sp, #8
 165              		.cfi_def_cfa_offset 48
 166              		.loc 2 115 0
 167 000a 0024     		movs	r4, #0
 168              		.loc 2 111 0
 169 000c 0546     		mov	r5, r0
 170              		.loc 2 115 0
 171 000e ADF80640 		strh	r4, [sp, #6]	@ movhi
ARM GAS  C:\Users\eliot\AppData\Local\Temp\ccSV69EM.s 			page 4


 172              	.LVL6:
 173              	.LBB33:
 174              	.LBB34:
 175              	.LBB35:
 176              	.LBB36:
 177              	.LBB37:
 178              		.file 3 "../../lib/ChibiOS/os/ext/CMSIS/include/core_cmFunc.h"
 179              		.loc 3 546 0
 180 0012 2023     		movs	r3, #32
 181              		.syntax unified
 182              	@ 546 "../../lib/ChibiOS/os/ext/CMSIS/include/core_cmFunc.h" 1
 183 0014 83F31188 		MSR basepri, r3
 184              	@ 0 "" 2
 185              	.LVL7:
 186              		.thumb
 187              		.syntax unified
 188              	.LBE37:
 189              	.LBE36:
 190              	.LBE35:
 191              		.file 4 "../../lib/ChibiOS/os/rt/include/chsys.h"
 192              		.loc 4 349 0
 193 0018 FFF7FEFF 		bl	_stats_start_measure_crit_thd
 194              	.LVL8:
 195              		.loc 4 350 0
 196 001c FFF7FEFF 		bl	_dbg_check_lock
 197              	.LVL9:
 198              	.LBE34:
 199              	.LBE33:
 200              		.loc 2 124 0
 201 0020 2D4B     		ldr	r3, .L24
 202 0022 DB68     		ldr	r3, [r3, #12]
 203 0024 5C62     		str	r4, [r3, #36]
 204              		.loc 2 131 0
 205 0026 5B6A     		ldr	r3, [r3, #36]
 206 0028 9BB2     		uxth	r3, r3
 207 002a ADF80630 		strh	r3, [sp, #6]	@ movhi
 208              	.LBB38:
 209              	.LBB39:
 210              		.loc 4 360 0
 211 002e FFF7FEFF 		bl	_dbg_check_unlock
 212              	.LVL10:
 213              		.loc 4 361 0
 214 0032 FFF7FEFF 		bl	_stats_stop_measure_crit_thd
 215              	.LVL11:
 216              		.loc 4 367 0
 217 0036 294B     		ldr	r3, .L24+4
 218 0038 1A68     		ldr	r2, [r3]
 219 003a 9A42     		cmp	r2, r3
 220 003c 04D0     		beq	.L11
 221 003e 9969     		ldr	r1, [r3, #24]
 222 0040 9368     		ldr	r3, [r2, #8]
 223 0042 8A68     		ldr	r2, [r1, #8]
 224 0044 9A42     		cmp	r2, r3
 225 0046 42D3     		bcc	.L23
 226              	.L11:
 227              	.LVL12:
 228              	.LBB40:
ARM GAS  C:\Users\eliot\AppData\Local\Temp\ccSV69EM.s 			page 5


 229              	.LBB41:
 230              	.LBB42:
 231              		.loc 3 546 0
 232 0048 0023     		movs	r3, #0
 233              		.syntax unified
 234              	@ 546 "../../lib/ChibiOS/os/ext/CMSIS/include/core_cmFunc.h" 1
 235 004a 83F31188 		MSR basepri, r3
 236              	@ 0 "" 2
 237              	.LVL13:
 238              		.thumb
 239              		.syntax unified
 240              	.LBE42:
 241              	.LBE41:
 242              	.LBE40:
 243              	.LBE39:
 244              	.LBE38:
 245              		.loc 2 134 0
 246 004e 244C     		ldr	r4, .L24+8
 247              	.LBB44:
 248              		.loc 2 139 0
 249 0050 95ED008A 		vldr.32	s16, [r5]
 250              	.LBE44:
 251              		.loc 2 134 0
 252 0054 4FF02008 		mov	r8, #32
 253              		.loc 2 135 0
 254 0058 4FF04009 		mov	r9, #64
 255              		.loc 2 136 0
 256 005c 4FF48067 		mov	r7, #1024
 257              		.loc 2 137 0
 258 0060 4FF40066 		mov	r6, #2048
 259              		.loc 2 134 0
 260 0064 A4F81880 		strh	r8, [r4, #24]	@ movhi
 261              	.LBB45:
 262              		.loc 2 139 0
 263 0068 18EE100A 		vmov	r0, s16
 264              	.LBE45:
 265              		.loc 2 135 0
 266 006c A4F81890 		strh	r9, [r4, #24]	@ movhi
 267              		.loc 2 136 0
 268 0070 2783     		strh	r7, [r4, #24]	@ movhi
 269              		.loc 2 137 0
 270 0072 2683     		strh	r6, [r4, #24]	@ movhi
 271              	.LBB46:
 272              		.loc 2 139 0
 273 0074 FFF7FEFF 		bl	__aeabi_f2d
 274              	.LVL14:
 275 0078 41EC100B 		vmov	d0, r0, r1
 276 007c FFF7FEFF 		bl	abs
 277              	.LVL15:
 278 0080 D5ED018A 		vldr.32	s17, [r5, #4]
 279 0084 8246     		mov	r10, r0
 280 0086 18EE900A 		vmov	r0, s17
 281 008a FFF7FEFF 		bl	__aeabi_f2d
 282              	.LVL16:
 283 008e 41EC100B 		vmov	d0, r0, r1
 284 0092 FFF7FEFF 		bl	abs
 285              	.LVL17:
ARM GAS  C:\Users\eliot\AppData\Local\Temp\ccSV69EM.s 			page 6


 286 0096 8245     		cmp	r10, r0
 287 0098 0CDA     		bge	.L12
 288              		.loc 2 140 0
 289 009a F5EEC08A 		vcmpe.f32	s17, #0
 290 009e F1EE10FA 		vmrs	APSR_nzcv, FPSCR
 291              		.loc 2 141 0
 292 00a2 4CBF     		ite	mi
 293 00a4 A4F81A80 		strhmi	r8, [r4, #26]	@ movhi
 294              		.loc 2 144 0
 295 00a8 6783     		strhpl	r7, [r4, #26]	@ movhi
 296              	.LBE46:
 297              		.loc 2 154 0
 298 00aa 02B0     		add	sp, sp, #8
 299              		.cfi_remember_state
 300              		.cfi_def_cfa_offset 40
 301              		@ sp needed
 302 00ac BDEC028B 		vldm	sp!, {d8}
 303              		.cfi_restore 80
 304              		.cfi_restore 81
 305              		.cfi_def_cfa_offset 32
 306 00b0 BDE8F087 		pop	{r4, r5, r6, r7, r8, r9, r10, pc}
 307              	.LVL18:
 308              	.L12:
 309              		.cfi_restore_state
 310              	.LBB47:
 311              		.loc 2 147 0
 312 00b4 B5EEC08A 		vcmpe.f32	s16, #0
 313 00b8 F1EE10FA 		vmrs	APSR_nzcv, FPSCR
 314              		.loc 2 148 0
 315 00bc 4CBF     		ite	mi
 316 00be A4F81A90 		strhmi	r9, [r4, #26]	@ movhi
 317              		.loc 2 151 0
 318 00c2 6683     		strhpl	r6, [r4, #26]	@ movhi
 319              	.LBE47:
 320              		.loc 2 154 0
 321 00c4 02B0     		add	sp, sp, #8
 322              		.cfi_remember_state
 323              		.cfi_def_cfa_offset 40
 324              		@ sp needed
 325 00c6 BDEC028B 		vldm	sp!, {d8}
 326              		.cfi_restore 80
 327              		.cfi_restore 81
 328              		.cfi_def_cfa_offset 32
 329 00ca BDE8F087 		pop	{r4, r5, r6, r7, r8, r9, r10, pc}
 330              	.LVL19:
 331              	.L23:
 332              		.cfi_restore_state
 333              	.LBB48:
 334              	.LBB43:
 335              		.loc 4 367 0
 336 00ce 0548     		ldr	r0, .L24+12
 337 00d0 FFF7FEFF 		bl	chSysHalt
 338              	.LVL20:
 339 00d4 B8E7     		b	.L11
 340              	.L25:
 341 00d6 00BF     		.align	2
 342              	.L24:
ARM GAS  C:\Users\eliot\AppData\Local\Temp\ccSV69EM.s 			page 7


 343 00d8 00000000 		.word	GPTD11
 344 00dc 00000000 		.word	ch
 345 00e0 000C0240 		.word	1073875968
 346 00e4 00000000 		.word	.LANCHOR0
 347              	.LBE43:
 348              	.LBE48:
 349              		.cfi_endproc
 350              	.LFE262:
 351              		.size	show_gravity, .-show_gravity
 352              		.section	.text.startup.main,"ax",%progbits
 353              		.align	1
 354              		.p2align 4,,15
 355              		.global	main
 356              		.syntax unified
 357              		.thumb
 358              		.thumb_func
 359              		.fpu fpv4-sp-d16
 360              		.type	main, %function
 361              	main:
 362              	.LFB263:
 363              		.loc 2 158 0
 364              		.cfi_startproc
 365              		@ args = 0, pretend = 0, frame = 80
 366              		@ frame_needed = 0, uses_anonymous_args = 0
 367 0000 2DE9F04F 		push	{r4, r5, r6, r7, r8, r9, r10, fp, lr}
 368              		.cfi_def_cfa_offset 36
 369              		.cfi_offset 4, -36
 370              		.cfi_offset 5, -32
 371              		.cfi_offset 6, -28
 372              		.cfi_offset 7, -24
 373              		.cfi_offset 8, -20
 374              		.cfi_offset 9, -16
 375              		.cfi_offset 10, -12
 376              		.cfi_offset 11, -8
 377              		.cfi_offset 14, -4
 378 0004 A1B0     		sub	sp, sp, #132
 379              		.cfi_def_cfa_offset 168
 380              		.loc 2 160 0
 381 0006 FFF7FEFF 		bl	halInit
 382              	.LVL21:
 383              		.loc 2 161 0
 384 000a FFF7FEFF 		bl	chSysInit
 385              	.LVL22:
 386              	.LBB53:
 387              	.LBB54:
 388              		.loc 2 40 0
 389 000e 4C48     		ldr	r0, .L29
 390 0010 4C49     		ldr	r1, .L29+4
 391              	.LBE54:
 392              	.LBE53:
 393              		.loc 2 191 0
 394 0012 DFF85091 		ldr	r9, .L29+36
 395              		.loc 2 196 0
 396 0016 DFF85081 		ldr	r8, .L29+40
 397              		.loc 2 191 0
 398 001a 0446     		mov	r4, r0
 399              	.LBB56:
ARM GAS  C:\Users\eliot\AppData\Local\Temp\ccSV69EM.s 			page 8


 400              	.LBB55:
 401              		.loc 2 40 0
 402 001c FFF7FEFF 		bl	sdStart
 403              	.LVL23:
 404              	.LBE55:
 405              	.LBE56:
 406              	.LBB57:
 407              	.LBB58:
 408              		.loc 2 54 0
 409 0020 4949     		ldr	r1, .L29+8
 410 0022 4A48     		ldr	r0, .L29+12
 411 0024 FFF7FEFF 		bl	gptStart
 412              	.LVL24:
 413              		.loc 2 56 0
 414 0028 4FF6FF71 		movw	r1, #65535
 415 002c 4748     		ldr	r0, .L29+12
 416 002e FFF7FEFF 		bl	gptStartContinuous
 417              	.LVL25:
 418              	.LBE58:
 419              	.LBE57:
 420              		.loc 2 164 0
 421 0032 FFF7FEFF 		bl	i2c_start
 422              	.LVL26:
 423              		.loc 2 165 0
 424 0036 FFF7FEFF 		bl	imu_start
 425              	.LVL27:
 426              		.loc 2 168 0
 427 003a 454A     		ldr	r2, .L29+16
 428 003c 4549     		ldr	r1, .L29+20
 429 003e 4648     		ldr	r0, .L29+24
 430 0040 FFF7FEFF 		bl	messagebus_init
 431              	.LVL28:
 432              		.loc 2 180 0
 433 0044 4549     		ldr	r1, .L29+28
 434 0046 4448     		ldr	r0, .L29+24
 435 0048 FFF7FEFF 		bl	messagebus_find_topic_blocking
 436              	.LVL29:
 437 004c 0546     		mov	r5, r0
 438              	.LVL30:
 439              		.loc 2 184 0
 440 004e 4FF4FA60 		mov	r0, #2000
 441              	.LVL31:
 442 0052 FFF7FEFF 		bl	chThdSleep
 443              	.LVL32:
 444              		.loc 2 185 0
 445 0056 2846     		mov	r0, r5
 446 0058 C821     		movs	r1, #200
 447 005a FFF7FEFF 		bl	imu_compute_offset
 448              	.LVL33:
 449              	.L27:
 450              		.loc 2 189 0 discriminator 1
 451 005e 0CA9     		add	r1, sp, #48
 452 0060 2846     		mov	r0, r5
 453 0062 5022     		movs	r2, #80
 454 0064 FFF7FEFF 		bl	messagebus_topic_wait
 455              	.LVL34:
 456              		.loc 2 191 0 discriminator 1
ARM GAS  C:\Users\eliot\AppData\Local\Temp\ccSV69EM.s 			page 9


 457 0068 BDF96270 		ldrsh	r7, [sp, #98]
 458 006c BDF96060 		ldrsh	r6, [sp, #96]
 459 0070 BDF95E00 		ldrsh	r0, [sp, #94]
 460 0074 BDF95C10 		ldrsh	r1, [sp, #92]
 461 0078 BDF95A30 		ldrsh	r3, [sp, #90]
 462 007c BDF95820 		ldrsh	r2, [sp, #88]
 463 0080 CDE90267 		strd	r6, r7, [sp, #8]
 464 0084 CDE90010 		strd	r1, r0, [sp]
 465 0088 4946     		mov	r1, r9
 466 008a 2046     		mov	r0, r4
 467 008c FFF7FEFF 		bl	chprintf.constprop.0
 468              	.LVL35:
 469              		.loc 2 202 0 discriminator 1
 470 0090 BDF962B0 		ldrsh	fp, [sp, #98]
 471 0094 BDF96E20 		ldrsh	r2, [sp, #110]
 472              		.loc 2 201 0 discriminator 1
 473 0098 BDF96C70 		ldrsh	r7, [sp, #108]
 474 009c BDF96060 		ldrsh	r6, [sp, #96]
 475              		.loc 2 199 0 discriminator 1
 476 00a0 BDF968E0 		ldrsh	lr, [sp, #104]
 477              		.loc 2 200 0 discriminator 1
 478 00a4 BDF95E00 		ldrsh	r0, [sp, #94]
 479 00a8 BDF96AA0 		ldrsh	r10, [sp, #106]
 480              		.loc 2 199 0 discriminator 1
 481 00ac BDF95C10 		ldrsh	r1, [sp, #92]
 482              		.loc 2 198 0 discriminator 1
 483 00b0 BDF95AC0 		ldrsh	ip, [sp, #90]
 484 00b4 BDF96630 		ldrsh	r3, [sp, #102]
 485              		.loc 2 196 0 discriminator 1
 486 00b8 ABEB0202 		sub	r2, fp, r2
 487 00bc F61B     		subs	r6, r6, r7
 488 00be 0392     		str	r2, [sp, #12]
 489              		.loc 2 197 0 discriminator 1
 490 00c0 BDF95870 		ldrsh	r7, [sp, #88]
 491 00c4 BDF96420 		ldrsh	r2, [sp, #100]
 492              		.loc 2 196 0 discriminator 1
 493 00c8 0296     		str	r6, [sp, #8]
 494 00ca A1EB0E01 		sub	r1, r1, lr
 495 00ce A0EB0A00 		sub	r0, r0, r10
 496 00d2 ACEB0303 		sub	r3, ip, r3
 497 00d6 BA1A     		subs	r2, r7, r2
 498 00d8 CDE90010 		strd	r1, r0, [sp]
 499 00dc 4146     		mov	r1, r8
 500 00de 2046     		mov	r0, r4
 501 00e0 FFF7FEFF 		bl	chprintf.constprop.0
 502              	.LVL36:
 503              		.loc 2 205 0 discriminator 1
 504 00e4 0C98     		ldr	r0, [sp, #48]	@ float
 505 00e6 FFF7FEFF 		bl	__aeabi_f2d
 506              	.LVL37:
 507 00ea 9DF87C30 		ldrb	r3, [sp, #124]	@ zero_extendqisi2
 508 00ee 0A93     		str	r3, [sp, #40]
 509 00f0 0646     		mov	r6, r0
 510 00f2 1198     		ldr	r0, [sp, #68]	@ float
 511 00f4 0F46     		mov	r7, r1
 512 00f6 FFF7FEFF 		bl	__aeabi_f2d
 513              	.LVL38:
ARM GAS  C:\Users\eliot\AppData\Local\Temp\ccSV69EM.s 			page 10


 514 00fa CDE90801 		strd	r0, [sp, #32]
 515 00fe 1098     		ldr	r0, [sp, #64]	@ float
 516 0100 FFF7FEFF 		bl	__aeabi_f2d
 517              	.LVL39:
 518 0104 CDE90601 		strd	r0, [sp, #24]
 519 0108 0F98     		ldr	r0, [sp, #60]	@ float
 520 010a FFF7FEFF 		bl	__aeabi_f2d
 521              	.LVL40:
 522 010e CDE90401 		strd	r0, [sp, #16]
 523 0112 0E98     		ldr	r0, [sp, #56]	@ float
 524 0114 FFF7FEFF 		bl	__aeabi_f2d
 525              	.LVL41:
 526 0118 CDE90201 		strd	r0, [sp, #8]
 527 011c 0D98     		ldr	r0, [sp, #52]	@ float
 528 011e FFF7FEFF 		bl	__aeabi_f2d
 529              	.LVL42:
 530 0122 3246     		mov	r2, r6
 531 0124 CDE90001 		strd	r0, [sp]
 532 0128 3B46     		mov	r3, r7
 533 012a 0D49     		ldr	r1, .L29+32
 534 012c 2046     		mov	r0, r4
 535 012e FFF7FEFF 		bl	chprintf.constprop.0
 536              	.LVL43:
 537              		.loc 2 210 0 discriminator 1
 538 0132 0CA8     		add	r0, sp, #48
 539 0134 FFF7FEFF 		bl	show_gravity
 540              	.LVL44:
 541              		.loc 2 211 0 discriminator 1
 542 0138 6420     		movs	r0, #100
 543 013a FFF7FEFF 		bl	chThdSleep
 544              	.LVL45:
 545 013e 8EE7     		b	.L27
 546              	.L30:
 547              		.align	2
 548              	.L29:
 549 0140 00000000 		.word	SD3
 550 0144 00000000 		.word	.LANCHOR1
 551 0148 00000000 		.word	.LANCHOR2
 552 014c 00000000 		.word	GPTD11
 553 0150 00000000 		.word	.LANCHOR3
 554 0154 00000000 		.word	.LANCHOR4
 555 0158 00000000 		.word	.LANCHOR5
 556 015c 00000000 		.word	.LC0
 557 0160 88000000 		.word	.LC3
 558 0164 08000000 		.word	.LC1
 559 0168 48000000 		.word	.LC2
 560              		.cfi_endproc
 561              	.LFE263:
 562              		.size	main, .-main
 563              		.global	bus_condvar
 564              		.global	bus_lock
 565              		.global	bus
 566              		.section	.bss.bus,"aw",%nobits
 567              		.align	2
 568              		.set	.LANCHOR5,. + 0
 569              		.type	bus, %object
 570              		.size	bus, 12
ARM GAS  C:\Users\eliot\AppData\Local\Temp\ccSV69EM.s 			page 11


 571              	bus:
 572 0000 00000000 		.space	12
 572      00000000 
 572      00000000 
 573              		.section	.data.bus_condvar,"aw",%progbits
 574              		.align	2
 575              		.set	.LANCHOR3,. + 0
 576              		.type	bus_condvar, %object
 577              		.size	bus_condvar, 8
 578              	bus_condvar:
 579 0000 00000000 		.word	bus_condvar
 580 0004 00000000 		.word	bus_condvar
 581              		.section	.data.bus_lock,"aw",%progbits
 582              		.align	2
 583              		.set	.LANCHOR4,. + 0
 584              		.type	bus_lock, %object
 585              		.size	bus_lock, 20
 586              	bus_lock:
 587 0000 00000000 		.word	bus_lock
 588 0004 00000000 		.word	bus_lock
 589 0008 00000000 		.word	0
 590 000c 00000000 		.word	0
 591 0010 00000000 		.word	0
 592              		.section	.data.ser_cfg.10164,"aw",%progbits
 593              		.align	2
 594              		.set	.LANCHOR1,. + 0
 595              		.type	ser_cfg.10164, %object
 596              		.size	ser_cfg.10164, 12
 597              	ser_cfg.10164:
 598 0000 00C20100 		.word	115200
 599 0004 0000     		.short	0
 600 0006 0000     		.short	0
 601 0008 0000     		.short	0
 602 000a 0000     		.space	2
 603              		.section	.rodata.__func__.7153,"a",%progbits
 604              		.align	2
 605              		.set	.LANCHOR0,. + 0
 606              		.type	__func__.7153, %object
 607              		.size	__func__.7153, 12
 608              	__func__.7153:
 609 0000 63685379 		.ascii	"chSysUnlock\000"
 609      73556E6C 
 609      6F636B00 
 610              		.section	.rodata.gpt11cfg.10168,"a",%progbits
 611              		.align	2
 612              		.set	.LANCHOR2,. + 0
 613              		.type	gpt11cfg.10168, %object
 614              		.size	gpt11cfg.10168, 16
 615              	gpt11cfg.10168:
 616 0000 40420F00 		.word	1000000
 617 0004 00000000 		.word	0
 618 0008 00000000 		.word	0
 619 000c 00000000 		.word	0
 620              		.section	.rodata.main.str1.4,"aMS",%progbits,1
 621              		.align	2
 622              	.LC0:
 623 0000 2F696D75 		.ascii	"/imu\000"
ARM GAS  C:\Users\eliot\AppData\Local\Temp\ccSV69EM.s 			page 12


 623      00
 624 0005 000000   		.space	3
 625              	.LC1:
 626 0008 68656C6C 		.ascii	"hello world %Ax=%-7d Ay=%-7d Az=%-7d Gx=%-7d Gy=%-7"
 626      6F20776F 
 626      726C6420 
 626      2541783D 
 626      252D3764 
 627 003b 6420477A 		.ascii	"d Gz=%-7d\015\012\000"
 627      3D252D37 
 627      640D0A00 
 628 0047 00       		.space	1
 629              	.LC2:
 630 0048 20617665 		.ascii	" avec offset %Ax=%-7d Ay=%-7d Az=%-7d Gx=%-7d Gy=%-"
 630      63206F66 
 630      66736574 
 630      20254178 
 630      3D252D37 
 631 007b 37642047 		.ascii	"7d Gz=%-7d\015\012\000"
 631      7A3D252D 
 631      37640D0A 
 631      00
 632              	.LC3:
 633 0088 72656164 		.ascii	"readable values %Ax=%.2f m/s^2 Ay=%.2f m/s^2 Az=%.2"
 633      61626C65 
 633      2076616C 
 633      75657320 
 633      2541783D 
 634 00bb 66206D2F 		.ascii	"f m/s^2 Gx=%.2f rad/s Gy=%.2f rad/s Gz=%.2f rad/s ("
 634      735E3220 
 634      47783D25 
 634      2E326620 
 634      7261642F 
 635 00ee 2578290D 		.ascii	"%x)\015\012\012\000"
 635      0A0A00
 636              		.text
 637              	.Letext0:
 638              		.file 5 "c:\\users\\eliot\\desktop\\ba6\\eclipse\\eclipse_e-puck2\\tools\\gcc-arm-none-eabi-7-2017
 639              		.file 6 "c:\\users\\eliot\\desktop\\ba6\\eclipse\\eclipse_e-puck2\\tools\\gcc-arm-none-eabi-7-2017
 640              		.file 7 "c:\\users\\eliot\\desktop\\ba6\\eclipse\\eclipse_e-puck2\\tools\\gcc-arm-none-eabi-7-2017
 641              		.file 8 "../../lib/ChibiOS/os/rt/ports/ARMCMx/compilers/GCC/chtypes.h"
 642              		.file 9 "../../lib/ChibiOS/os/rt/include/chsystypes.h"
 643              		.file 10 "../../lib/ChibiOS/os/rt/include/chschd.h"
 644              		.file 11 "../../lib/ChibiOS/os/ext/CMSIS/include/core_cm4.h"
 645              		.file 12 "../../lib/ChibiOS/os/ext/CMSIS/ST/system_stm32f4xx.h"
 646              		.file 13 "../../lib/ChibiOS/os/ext/CMSIS/ST/stm32f407xx.h"
 647              		.file 14 "../../lib/ChibiOS/os/rt/ports/ARMCMx/chcore.h"
 648              		.file 15 "../../lib/ChibiOS/os/rt/ports/ARMCMx/chcore_v7m.h"
 649              		.file 16 "../../lib/ChibiOS/os/rt/include/chdebug.h"
 650              		.file 17 "../../lib/ChibiOS/os/rt/include/chtm.h"
 651              		.file 18 "../../lib/ChibiOS/os/rt/include/chstats.h"
 652              		.file 19 "../../lib/ChibiOS/os/rt/include/chsem.h"
 653              		.file 20 "../../lib/ChibiOS/os/rt/include/chmtx.h"
 654              		.file 21 "../../lib/ChibiOS/os/rt/include/chregistry.h"
 655              		.file 22 "../../lib/ChibiOS/os/rt/include/chcond.h"
 656              		.file 23 "../../lib/ChibiOS/os/rt/include/chevents.h"
 657              		.file 24 "../../lib/ChibiOS/os/rt/include/chqueues.h"
ARM GAS  C:\Users\eliot\AppData\Local\Temp\ccSV69EM.s 			page 13


 658              		.file 25 "../../lib/ChibiOS/os/rt/include/chstreams.h"
 659              		.file 26 "../../lib/ChibiOS/os/hal/ports/STM32/STM32F4xx/stm32_dma.h"
 660              		.file 27 "../../lib/ChibiOS/os/hal/ports/STM32/LLD/GPIOv2/pal_lld.h"
 661              		.file 28 "../../lib/ChibiOS/os/hal/include/gpt.h"
 662              		.file 29 "../../lib/ChibiOS/os/hal/ports/STM32/LLD/TIMv1/gpt_lld.h"
 663              		.file 30 "../../lib/ChibiOS/os/hal/ports/STM32/LLD/TIMv1/stm32_tim.h"
 664              		.file 31 "../../lib/ChibiOS/os/hal/include/i2c.h"
 665              		.file 32 "../../lib/ChibiOS/os/hal/ports/STM32/LLD/I2Cv1/i2c_lld.h"
 666              		.file 33 "../../lib/ChibiOS/os/hal/include/serial.h"
 667              		.file 34 "../../lib/ChibiOS/os/hal/ports/STM32/LLD/USARTv1/serial_lld.h"
 668              		.file 35 "../../lib/ChibiOS/os/hal/include/usb.h"
 669              		.file 36 "../../lib/ChibiOS/os/hal/ports/STM32/LLD/OTGv1/usb_lld.h"
 670              		.file 37 "../../lib/ChibiOS/os/hal/ports/STM32/LLD/OTGv1/stm32_otg.h"
 671              		.file 38 "c:\\users\\eliot\\desktop\\ba6\\eclipse\\eclipse_e-puck2\\tools\\gcc-arm-none-eabi-7-201
 672              		.file 39 "c:\\users\\eliot\\desktop\\ba6\\eclipse\\eclipse_e-puck2\\tools\\gcc-arm-none-eabi-7-201
 673              		.file 40 "c:\\users\\eliot\\desktop\\ba6\\eclipse\\eclipse_e-puck2\\tools\\gcc-arm-none-eabi-7-201
 674              		.file 41 "c:\\users\\eliot\\desktop\\ba6\\eclipse\\eclipse_e-puck2\\tools\\gcc-arm-none-eabi-7-201
 675              		.file 42 "c:\\users\\eliot\\desktop\\ba6\\eclipse\\eclipse_e-puck2\\tools\\gcc-arm-none-eabi-7-201
 676              		.file 43 "<built-in>"
 677              		.file 44 "c:\\users\\eliot\\desktop\\ba6\\eclipse\\eclipse_e-puck2\\tools\\gcc-arm-none-eabi-7-201
 678              		.file 45 "../../lib/msgbus/messagebus.h"
 679              		.file 46 "./mpu9250.h"
 680              		.file 47 "./imu.h"
 681              		.file 48 "../../lib/ChibiOS/os/hal/include/hal.h"
 682              		.file 49 "./i2c_bus.h"
 683              		.file 50 "../../lib/ChibiOS/os/rt/include/chthreads.h"